
k/idt_load.o:     format de fichier elf32-i386


Déassemblage de la section .text :

00000000 <idt_load>:
       0:	0f 01 1d 00 00 00 00 	lidtl  0x0
       7:	c3                   	ret    

00000008 <interrupt_0>:
       8:	fa                   	cli    
       9:	6a 00                	push   $0x0
       b:	6a 00                	push   $0x0
       d:	60                   	pusha  
       e:	66 8c d8             	mov    %ds,%ax
      11:	50                   	push   %eax
      12:	66 b8 10 00          	mov    $0x10,%ax
      16:	8e d8                	mov    %eax,%ds
      18:	8e c0                	mov    %eax,%es
      1a:	8e e0                	mov    %eax,%fs
      1c:	8e e8                	mov    %eax,%gs
      1e:	e9 fc ff ff ff       	jmp    1f <interrupt_0+0x17>
      23:	58                   	pop    %eax
      24:	8e d8                	mov    %eax,%ds
      26:	8e c0                	mov    %eax,%es
      28:	8e e0                	mov    %eax,%fs
      2a:	8e e8                	mov    %eax,%gs
      2c:	61                   	popa   
      2d:	83 c4 08             	add    $0x8,%esp
      30:	fb                   	sti    
      31:	cf                   	iret   

00000032 <interrupt_1>:
      32:	fa                   	cli    
      33:	6a 00                	push   $0x0
      35:	6a 01                	push   $0x1
      37:	60                   	pusha  
      38:	66 8c d8             	mov    %ds,%ax
      3b:	50                   	push   %eax
      3c:	66 b8 10 00          	mov    $0x10,%ax
      40:	8e d8                	mov    %eax,%ds
      42:	8e c0                	mov    %eax,%es
      44:	8e e0                	mov    %eax,%fs
      46:	8e e8                	mov    %eax,%gs
      48:	e9 fc ff ff ff       	jmp    49 <interrupt_1+0x17>
      4d:	58                   	pop    %eax
      4e:	8e d8                	mov    %eax,%ds
      50:	8e c0                	mov    %eax,%es
      52:	8e e0                	mov    %eax,%fs
      54:	8e e8                	mov    %eax,%gs
      56:	61                   	popa   
      57:	83 c4 08             	add    $0x8,%esp
      5a:	fb                   	sti    
      5b:	cf                   	iret   

0000005c <interrupt_2>:
      5c:	fa                   	cli    
      5d:	6a 00                	push   $0x0
      5f:	6a 02                	push   $0x2
      61:	60                   	pusha  
      62:	66 8c d8             	mov    %ds,%ax
      65:	50                   	push   %eax
      66:	66 b8 10 00          	mov    $0x10,%ax
      6a:	8e d8                	mov    %eax,%ds
      6c:	8e c0                	mov    %eax,%es
      6e:	8e e0                	mov    %eax,%fs
      70:	8e e8                	mov    %eax,%gs
      72:	e9 fc ff ff ff       	jmp    73 <interrupt_2+0x17>
      77:	58                   	pop    %eax
      78:	8e d8                	mov    %eax,%ds
      7a:	8e c0                	mov    %eax,%es
      7c:	8e e0                	mov    %eax,%fs
      7e:	8e e8                	mov    %eax,%gs
      80:	61                   	popa   
      81:	83 c4 08             	add    $0x8,%esp
      84:	fb                   	sti    
      85:	cf                   	iret   

00000086 <interrupt_3>:
      86:	fa                   	cli    
      87:	6a 00                	push   $0x0
      89:	6a 03                	push   $0x3
      8b:	60                   	pusha  
      8c:	66 8c d8             	mov    %ds,%ax
      8f:	50                   	push   %eax
      90:	66 b8 10 00          	mov    $0x10,%ax
      94:	8e d8                	mov    %eax,%ds
      96:	8e c0                	mov    %eax,%es
      98:	8e e0                	mov    %eax,%fs
      9a:	8e e8                	mov    %eax,%gs
      9c:	e9 fc ff ff ff       	jmp    9d <interrupt_3+0x17>
      a1:	58                   	pop    %eax
      a2:	8e d8                	mov    %eax,%ds
      a4:	8e c0                	mov    %eax,%es
      a6:	8e e0                	mov    %eax,%fs
      a8:	8e e8                	mov    %eax,%gs
      aa:	61                   	popa   
      ab:	83 c4 08             	add    $0x8,%esp
      ae:	fb                   	sti    
      af:	cf                   	iret   

000000b0 <interrupt_4>:
      b0:	fa                   	cli    
      b1:	6a 00                	push   $0x0
      b3:	6a 04                	push   $0x4
      b5:	60                   	pusha  
      b6:	66 8c d8             	mov    %ds,%ax
      b9:	50                   	push   %eax
      ba:	66 b8 10 00          	mov    $0x10,%ax
      be:	8e d8                	mov    %eax,%ds
      c0:	8e c0                	mov    %eax,%es
      c2:	8e e0                	mov    %eax,%fs
      c4:	8e e8                	mov    %eax,%gs
      c6:	e9 fc ff ff ff       	jmp    c7 <interrupt_4+0x17>
      cb:	58                   	pop    %eax
      cc:	8e d8                	mov    %eax,%ds
      ce:	8e c0                	mov    %eax,%es
      d0:	8e e0                	mov    %eax,%fs
      d2:	8e e8                	mov    %eax,%gs
      d4:	61                   	popa   
      d5:	83 c4 08             	add    $0x8,%esp
      d8:	fb                   	sti    
      d9:	cf                   	iret   

000000da <interrupt_5>:
      da:	fa                   	cli    
      db:	6a 00                	push   $0x0
      dd:	6a 05                	push   $0x5
      df:	60                   	pusha  
      e0:	66 8c d8             	mov    %ds,%ax
      e3:	50                   	push   %eax
      e4:	66 b8 10 00          	mov    $0x10,%ax
      e8:	8e d8                	mov    %eax,%ds
      ea:	8e c0                	mov    %eax,%es
      ec:	8e e0                	mov    %eax,%fs
      ee:	8e e8                	mov    %eax,%gs
      f0:	e9 fc ff ff ff       	jmp    f1 <interrupt_5+0x17>
      f5:	58                   	pop    %eax
      f6:	8e d8                	mov    %eax,%ds
      f8:	8e c0                	mov    %eax,%es
      fa:	8e e0                	mov    %eax,%fs
      fc:	8e e8                	mov    %eax,%gs
      fe:	61                   	popa   
      ff:	83 c4 08             	add    $0x8,%esp
     102:	fb                   	sti    
     103:	cf                   	iret   

00000104 <interrupt_6>:
     104:	fa                   	cli    
     105:	6a 00                	push   $0x0
     107:	6a 06                	push   $0x6
     109:	60                   	pusha  
     10a:	66 8c d8             	mov    %ds,%ax
     10d:	50                   	push   %eax
     10e:	66 b8 10 00          	mov    $0x10,%ax
     112:	8e d8                	mov    %eax,%ds
     114:	8e c0                	mov    %eax,%es
     116:	8e e0                	mov    %eax,%fs
     118:	8e e8                	mov    %eax,%gs
     11a:	e9 fc ff ff ff       	jmp    11b <interrupt_6+0x17>
     11f:	58                   	pop    %eax
     120:	8e d8                	mov    %eax,%ds
     122:	8e c0                	mov    %eax,%es
     124:	8e e0                	mov    %eax,%fs
     126:	8e e8                	mov    %eax,%gs
     128:	61                   	popa   
     129:	83 c4 08             	add    $0x8,%esp
     12c:	fb                   	sti    
     12d:	cf                   	iret   

0000012e <interrupt_7>:
     12e:	fa                   	cli    
     12f:	6a 00                	push   $0x0
     131:	6a 07                	push   $0x7
     133:	60                   	pusha  
     134:	66 8c d8             	mov    %ds,%ax
     137:	50                   	push   %eax
     138:	66 b8 10 00          	mov    $0x10,%ax
     13c:	8e d8                	mov    %eax,%ds
     13e:	8e c0                	mov    %eax,%es
     140:	8e e0                	mov    %eax,%fs
     142:	8e e8                	mov    %eax,%gs
     144:	e9 fc ff ff ff       	jmp    145 <interrupt_7+0x17>
     149:	58                   	pop    %eax
     14a:	8e d8                	mov    %eax,%ds
     14c:	8e c0                	mov    %eax,%es
     14e:	8e e0                	mov    %eax,%fs
     150:	8e e8                	mov    %eax,%gs
     152:	61                   	popa   
     153:	83 c4 08             	add    $0x8,%esp
     156:	fb                   	sti    
     157:	cf                   	iret   

00000158 <interrupt_8>:
     158:	fa                   	cli    
     159:	6a 00                	push   $0x0
     15b:	6a 08                	push   $0x8
     15d:	60                   	pusha  
     15e:	66 8c d8             	mov    %ds,%ax
     161:	50                   	push   %eax
     162:	66 b8 10 00          	mov    $0x10,%ax
     166:	8e d8                	mov    %eax,%ds
     168:	8e c0                	mov    %eax,%es
     16a:	8e e0                	mov    %eax,%fs
     16c:	8e e8                	mov    %eax,%gs
     16e:	e9 fc ff ff ff       	jmp    16f <interrupt_8+0x17>
     173:	58                   	pop    %eax
     174:	8e d8                	mov    %eax,%ds
     176:	8e c0                	mov    %eax,%es
     178:	8e e0                	mov    %eax,%fs
     17a:	8e e8                	mov    %eax,%gs
     17c:	61                   	popa   
     17d:	83 c4 08             	add    $0x8,%esp
     180:	fb                   	sti    
     181:	cf                   	iret   

00000182 <interrupt_9>:
     182:	fa                   	cli    
     183:	6a 00                	push   $0x0
     185:	6a 09                	push   $0x9
     187:	60                   	pusha  
     188:	66 8c d8             	mov    %ds,%ax
     18b:	50                   	push   %eax
     18c:	66 b8 10 00          	mov    $0x10,%ax
     190:	8e d8                	mov    %eax,%ds
     192:	8e c0                	mov    %eax,%es
     194:	8e e0                	mov    %eax,%fs
     196:	8e e8                	mov    %eax,%gs
     198:	e9 fc ff ff ff       	jmp    199 <interrupt_9+0x17>
     19d:	58                   	pop    %eax
     19e:	8e d8                	mov    %eax,%ds
     1a0:	8e c0                	mov    %eax,%es
     1a2:	8e e0                	mov    %eax,%fs
     1a4:	8e e8                	mov    %eax,%gs
     1a6:	61                   	popa   
     1a7:	83 c4 08             	add    $0x8,%esp
     1aa:	fb                   	sti    
     1ab:	cf                   	iret   

000001ac <interrupt_10>:
     1ac:	fa                   	cli    
     1ad:	6a 00                	push   $0x0
     1af:	6a 0a                	push   $0xa
     1b1:	60                   	pusha  
     1b2:	66 8c d8             	mov    %ds,%ax
     1b5:	50                   	push   %eax
     1b6:	66 b8 10 00          	mov    $0x10,%ax
     1ba:	8e d8                	mov    %eax,%ds
     1bc:	8e c0                	mov    %eax,%es
     1be:	8e e0                	mov    %eax,%fs
     1c0:	8e e8                	mov    %eax,%gs
     1c2:	e9 fc ff ff ff       	jmp    1c3 <interrupt_10+0x17>
     1c7:	58                   	pop    %eax
     1c8:	8e d8                	mov    %eax,%ds
     1ca:	8e c0                	mov    %eax,%es
     1cc:	8e e0                	mov    %eax,%fs
     1ce:	8e e8                	mov    %eax,%gs
     1d0:	61                   	popa   
     1d1:	83 c4 08             	add    $0x8,%esp
     1d4:	fb                   	sti    
     1d5:	cf                   	iret   

000001d6 <interrupt_11>:
     1d6:	fa                   	cli    
     1d7:	6a 00                	push   $0x0
     1d9:	6a 0b                	push   $0xb
     1db:	60                   	pusha  
     1dc:	66 8c d8             	mov    %ds,%ax
     1df:	50                   	push   %eax
     1e0:	66 b8 10 00          	mov    $0x10,%ax
     1e4:	8e d8                	mov    %eax,%ds
     1e6:	8e c0                	mov    %eax,%es
     1e8:	8e e0                	mov    %eax,%fs
     1ea:	8e e8                	mov    %eax,%gs
     1ec:	e9 fc ff ff ff       	jmp    1ed <interrupt_11+0x17>
     1f1:	58                   	pop    %eax
     1f2:	8e d8                	mov    %eax,%ds
     1f4:	8e c0                	mov    %eax,%es
     1f6:	8e e0                	mov    %eax,%fs
     1f8:	8e e8                	mov    %eax,%gs
     1fa:	61                   	popa   
     1fb:	83 c4 08             	add    $0x8,%esp
     1fe:	fb                   	sti    
     1ff:	cf                   	iret   

00000200 <interrupt_12>:
     200:	fa                   	cli    
     201:	6a 00                	push   $0x0
     203:	6a 0c                	push   $0xc
     205:	60                   	pusha  
     206:	66 8c d8             	mov    %ds,%ax
     209:	50                   	push   %eax
     20a:	66 b8 10 00          	mov    $0x10,%ax
     20e:	8e d8                	mov    %eax,%ds
     210:	8e c0                	mov    %eax,%es
     212:	8e e0                	mov    %eax,%fs
     214:	8e e8                	mov    %eax,%gs
     216:	e9 fc ff ff ff       	jmp    217 <interrupt_12+0x17>
     21b:	58                   	pop    %eax
     21c:	8e d8                	mov    %eax,%ds
     21e:	8e c0                	mov    %eax,%es
     220:	8e e0                	mov    %eax,%fs
     222:	8e e8                	mov    %eax,%gs
     224:	61                   	popa   
     225:	83 c4 08             	add    $0x8,%esp
     228:	fb                   	sti    
     229:	cf                   	iret   

0000022a <interrupt_13>:
     22a:	fa                   	cli    
     22b:	6a 00                	push   $0x0
     22d:	6a 0d                	push   $0xd
     22f:	60                   	pusha  
     230:	66 8c d8             	mov    %ds,%ax
     233:	50                   	push   %eax
     234:	66 b8 10 00          	mov    $0x10,%ax
     238:	8e d8                	mov    %eax,%ds
     23a:	8e c0                	mov    %eax,%es
     23c:	8e e0                	mov    %eax,%fs
     23e:	8e e8                	mov    %eax,%gs
     240:	e9 fc ff ff ff       	jmp    241 <interrupt_13+0x17>
     245:	58                   	pop    %eax
     246:	8e d8                	mov    %eax,%ds
     248:	8e c0                	mov    %eax,%es
     24a:	8e e0                	mov    %eax,%fs
     24c:	8e e8                	mov    %eax,%gs
     24e:	61                   	popa   
     24f:	83 c4 08             	add    $0x8,%esp
     252:	fb                   	sti    
     253:	cf                   	iret   

00000254 <interrupt_14>:
     254:	fa                   	cli    
     255:	6a 00                	push   $0x0
     257:	6a 0e                	push   $0xe
     259:	60                   	pusha  
     25a:	66 8c d8             	mov    %ds,%ax
     25d:	50                   	push   %eax
     25e:	66 b8 10 00          	mov    $0x10,%ax
     262:	8e d8                	mov    %eax,%ds
     264:	8e c0                	mov    %eax,%es
     266:	8e e0                	mov    %eax,%fs
     268:	8e e8                	mov    %eax,%gs
     26a:	e9 fc ff ff ff       	jmp    26b <interrupt_14+0x17>
     26f:	58                   	pop    %eax
     270:	8e d8                	mov    %eax,%ds
     272:	8e c0                	mov    %eax,%es
     274:	8e e0                	mov    %eax,%fs
     276:	8e e8                	mov    %eax,%gs
     278:	61                   	popa   
     279:	83 c4 08             	add    $0x8,%esp
     27c:	fb                   	sti    
     27d:	cf                   	iret   

0000027e <interrupt_15>:
     27e:	fa                   	cli    
     27f:	6a 00                	push   $0x0
     281:	6a 0f                	push   $0xf
     283:	60                   	pusha  
     284:	66 8c d8             	mov    %ds,%ax
     287:	50                   	push   %eax
     288:	66 b8 10 00          	mov    $0x10,%ax
     28c:	8e d8                	mov    %eax,%ds
     28e:	8e c0                	mov    %eax,%es
     290:	8e e0                	mov    %eax,%fs
     292:	8e e8                	mov    %eax,%gs
     294:	e9 fc ff ff ff       	jmp    295 <interrupt_15+0x17>
     299:	58                   	pop    %eax
     29a:	8e d8                	mov    %eax,%ds
     29c:	8e c0                	mov    %eax,%es
     29e:	8e e0                	mov    %eax,%fs
     2a0:	8e e8                	mov    %eax,%gs
     2a2:	61                   	popa   
     2a3:	83 c4 08             	add    $0x8,%esp
     2a6:	fb                   	sti    
     2a7:	cf                   	iret   

000002a8 <interrupt_16>:
     2a8:	fa                   	cli    
     2a9:	6a 00                	push   $0x0
     2ab:	6a 10                	push   $0x10
     2ad:	60                   	pusha  
     2ae:	66 8c d8             	mov    %ds,%ax
     2b1:	50                   	push   %eax
     2b2:	66 b8 10 00          	mov    $0x10,%ax
     2b6:	8e d8                	mov    %eax,%ds
     2b8:	8e c0                	mov    %eax,%es
     2ba:	8e e0                	mov    %eax,%fs
     2bc:	8e e8                	mov    %eax,%gs
     2be:	e9 fc ff ff ff       	jmp    2bf <interrupt_16+0x17>
     2c3:	58                   	pop    %eax
     2c4:	8e d8                	mov    %eax,%ds
     2c6:	8e c0                	mov    %eax,%es
     2c8:	8e e0                	mov    %eax,%fs
     2ca:	8e e8                	mov    %eax,%gs
     2cc:	61                   	popa   
     2cd:	83 c4 08             	add    $0x8,%esp
     2d0:	fb                   	sti    
     2d1:	cf                   	iret   

000002d2 <interrupt_17>:
     2d2:	fa                   	cli    
     2d3:	6a 00                	push   $0x0
     2d5:	6a 11                	push   $0x11
     2d7:	60                   	pusha  
     2d8:	66 8c d8             	mov    %ds,%ax
     2db:	50                   	push   %eax
     2dc:	66 b8 10 00          	mov    $0x10,%ax
     2e0:	8e d8                	mov    %eax,%ds
     2e2:	8e c0                	mov    %eax,%es
     2e4:	8e e0                	mov    %eax,%fs
     2e6:	8e e8                	mov    %eax,%gs
     2e8:	e9 fc ff ff ff       	jmp    2e9 <interrupt_17+0x17>
     2ed:	58                   	pop    %eax
     2ee:	8e d8                	mov    %eax,%ds
     2f0:	8e c0                	mov    %eax,%es
     2f2:	8e e0                	mov    %eax,%fs
     2f4:	8e e8                	mov    %eax,%gs
     2f6:	61                   	popa   
     2f7:	83 c4 08             	add    $0x8,%esp
     2fa:	fb                   	sti    
     2fb:	cf                   	iret   

000002fc <interrupt_18>:
     2fc:	fa                   	cli    
     2fd:	6a 00                	push   $0x0
     2ff:	6a 12                	push   $0x12
     301:	60                   	pusha  
     302:	66 8c d8             	mov    %ds,%ax
     305:	50                   	push   %eax
     306:	66 b8 10 00          	mov    $0x10,%ax
     30a:	8e d8                	mov    %eax,%ds
     30c:	8e c0                	mov    %eax,%es
     30e:	8e e0                	mov    %eax,%fs
     310:	8e e8                	mov    %eax,%gs
     312:	e9 fc ff ff ff       	jmp    313 <interrupt_18+0x17>
     317:	58                   	pop    %eax
     318:	8e d8                	mov    %eax,%ds
     31a:	8e c0                	mov    %eax,%es
     31c:	8e e0                	mov    %eax,%fs
     31e:	8e e8                	mov    %eax,%gs
     320:	61                   	popa   
     321:	83 c4 08             	add    $0x8,%esp
     324:	fb                   	sti    
     325:	cf                   	iret   

00000326 <interrupt_19>:
     326:	fa                   	cli    
     327:	6a 00                	push   $0x0
     329:	6a 13                	push   $0x13
     32b:	60                   	pusha  
     32c:	66 8c d8             	mov    %ds,%ax
     32f:	50                   	push   %eax
     330:	66 b8 10 00          	mov    $0x10,%ax
     334:	8e d8                	mov    %eax,%ds
     336:	8e c0                	mov    %eax,%es
     338:	8e e0                	mov    %eax,%fs
     33a:	8e e8                	mov    %eax,%gs
     33c:	e9 fc ff ff ff       	jmp    33d <interrupt_19+0x17>
     341:	58                   	pop    %eax
     342:	8e d8                	mov    %eax,%ds
     344:	8e c0                	mov    %eax,%es
     346:	8e e0                	mov    %eax,%fs
     348:	8e e8                	mov    %eax,%gs
     34a:	61                   	popa   
     34b:	83 c4 08             	add    $0x8,%esp
     34e:	fb                   	sti    
     34f:	cf                   	iret   

00000350 <interrupt_20>:
     350:	fa                   	cli    
     351:	6a 00                	push   $0x0
     353:	6a 14                	push   $0x14
     355:	60                   	pusha  
     356:	66 8c d8             	mov    %ds,%ax
     359:	50                   	push   %eax
     35a:	66 b8 10 00          	mov    $0x10,%ax
     35e:	8e d8                	mov    %eax,%ds
     360:	8e c0                	mov    %eax,%es
     362:	8e e0                	mov    %eax,%fs
     364:	8e e8                	mov    %eax,%gs
     366:	e9 fc ff ff ff       	jmp    367 <interrupt_20+0x17>
     36b:	58                   	pop    %eax
     36c:	8e d8                	mov    %eax,%ds
     36e:	8e c0                	mov    %eax,%es
     370:	8e e0                	mov    %eax,%fs
     372:	8e e8                	mov    %eax,%gs
     374:	61                   	popa   
     375:	83 c4 08             	add    $0x8,%esp
     378:	fb                   	sti    
     379:	cf                   	iret   

0000037a <interrupt_21>:
     37a:	fa                   	cli    
     37b:	6a 00                	push   $0x0
     37d:	6a 15                	push   $0x15
     37f:	60                   	pusha  
     380:	66 8c d8             	mov    %ds,%ax
     383:	50                   	push   %eax
     384:	66 b8 10 00          	mov    $0x10,%ax
     388:	8e d8                	mov    %eax,%ds
     38a:	8e c0                	mov    %eax,%es
     38c:	8e e0                	mov    %eax,%fs
     38e:	8e e8                	mov    %eax,%gs
     390:	e9 fc ff ff ff       	jmp    391 <interrupt_21+0x17>
     395:	58                   	pop    %eax
     396:	8e d8                	mov    %eax,%ds
     398:	8e c0                	mov    %eax,%es
     39a:	8e e0                	mov    %eax,%fs
     39c:	8e e8                	mov    %eax,%gs
     39e:	61                   	popa   
     39f:	83 c4 08             	add    $0x8,%esp
     3a2:	fb                   	sti    
     3a3:	cf                   	iret   

000003a4 <interrupt_22>:
     3a4:	fa                   	cli    
     3a5:	6a 00                	push   $0x0
     3a7:	6a 16                	push   $0x16
     3a9:	60                   	pusha  
     3aa:	66 8c d8             	mov    %ds,%ax
     3ad:	50                   	push   %eax
     3ae:	66 b8 10 00          	mov    $0x10,%ax
     3b2:	8e d8                	mov    %eax,%ds
     3b4:	8e c0                	mov    %eax,%es
     3b6:	8e e0                	mov    %eax,%fs
     3b8:	8e e8                	mov    %eax,%gs
     3ba:	e9 fc ff ff ff       	jmp    3bb <interrupt_22+0x17>
     3bf:	58                   	pop    %eax
     3c0:	8e d8                	mov    %eax,%ds
     3c2:	8e c0                	mov    %eax,%es
     3c4:	8e e0                	mov    %eax,%fs
     3c6:	8e e8                	mov    %eax,%gs
     3c8:	61                   	popa   
     3c9:	83 c4 08             	add    $0x8,%esp
     3cc:	fb                   	sti    
     3cd:	cf                   	iret   

000003ce <interrupt_23>:
     3ce:	fa                   	cli    
     3cf:	6a 00                	push   $0x0
     3d1:	6a 17                	push   $0x17
     3d3:	60                   	pusha  
     3d4:	66 8c d8             	mov    %ds,%ax
     3d7:	50                   	push   %eax
     3d8:	66 b8 10 00          	mov    $0x10,%ax
     3dc:	8e d8                	mov    %eax,%ds
     3de:	8e c0                	mov    %eax,%es
     3e0:	8e e0                	mov    %eax,%fs
     3e2:	8e e8                	mov    %eax,%gs
     3e4:	e9 fc ff ff ff       	jmp    3e5 <interrupt_23+0x17>
     3e9:	58                   	pop    %eax
     3ea:	8e d8                	mov    %eax,%ds
     3ec:	8e c0                	mov    %eax,%es
     3ee:	8e e0                	mov    %eax,%fs
     3f0:	8e e8                	mov    %eax,%gs
     3f2:	61                   	popa   
     3f3:	83 c4 08             	add    $0x8,%esp
     3f6:	fb                   	sti    
     3f7:	cf                   	iret   

000003f8 <interrupt_24>:
     3f8:	fa                   	cli    
     3f9:	6a 00                	push   $0x0
     3fb:	6a 18                	push   $0x18
     3fd:	60                   	pusha  
     3fe:	66 8c d8             	mov    %ds,%ax
     401:	50                   	push   %eax
     402:	66 b8 10 00          	mov    $0x10,%ax
     406:	8e d8                	mov    %eax,%ds
     408:	8e c0                	mov    %eax,%es
     40a:	8e e0                	mov    %eax,%fs
     40c:	8e e8                	mov    %eax,%gs
     40e:	e9 fc ff ff ff       	jmp    40f <interrupt_24+0x17>
     413:	58                   	pop    %eax
     414:	8e d8                	mov    %eax,%ds
     416:	8e c0                	mov    %eax,%es
     418:	8e e0                	mov    %eax,%fs
     41a:	8e e8                	mov    %eax,%gs
     41c:	61                   	popa   
     41d:	83 c4 08             	add    $0x8,%esp
     420:	fb                   	sti    
     421:	cf                   	iret   

00000422 <interrupt_25>:
     422:	fa                   	cli    
     423:	6a 00                	push   $0x0
     425:	6a 19                	push   $0x19
     427:	60                   	pusha  
     428:	66 8c d8             	mov    %ds,%ax
     42b:	50                   	push   %eax
     42c:	66 b8 10 00          	mov    $0x10,%ax
     430:	8e d8                	mov    %eax,%ds
     432:	8e c0                	mov    %eax,%es
     434:	8e e0                	mov    %eax,%fs
     436:	8e e8                	mov    %eax,%gs
     438:	e9 fc ff ff ff       	jmp    439 <interrupt_25+0x17>
     43d:	58                   	pop    %eax
     43e:	8e d8                	mov    %eax,%ds
     440:	8e c0                	mov    %eax,%es
     442:	8e e0                	mov    %eax,%fs
     444:	8e e8                	mov    %eax,%gs
     446:	61                   	popa   
     447:	83 c4 08             	add    $0x8,%esp
     44a:	fb                   	sti    
     44b:	cf                   	iret   

0000044c <interrupt_26>:
     44c:	fa                   	cli    
     44d:	6a 00                	push   $0x0
     44f:	6a 1a                	push   $0x1a
     451:	60                   	pusha  
     452:	66 8c d8             	mov    %ds,%ax
     455:	50                   	push   %eax
     456:	66 b8 10 00          	mov    $0x10,%ax
     45a:	8e d8                	mov    %eax,%ds
     45c:	8e c0                	mov    %eax,%es
     45e:	8e e0                	mov    %eax,%fs
     460:	8e e8                	mov    %eax,%gs
     462:	e9 fc ff ff ff       	jmp    463 <interrupt_26+0x17>
     467:	58                   	pop    %eax
     468:	8e d8                	mov    %eax,%ds
     46a:	8e c0                	mov    %eax,%es
     46c:	8e e0                	mov    %eax,%fs
     46e:	8e e8                	mov    %eax,%gs
     470:	61                   	popa   
     471:	83 c4 08             	add    $0x8,%esp
     474:	fb                   	sti    
     475:	cf                   	iret   

00000476 <interrupt_27>:
     476:	fa                   	cli    
     477:	6a 00                	push   $0x0
     479:	6a 1b                	push   $0x1b
     47b:	60                   	pusha  
     47c:	66 8c d8             	mov    %ds,%ax
     47f:	50                   	push   %eax
     480:	66 b8 10 00          	mov    $0x10,%ax
     484:	8e d8                	mov    %eax,%ds
     486:	8e c0                	mov    %eax,%es
     488:	8e e0                	mov    %eax,%fs
     48a:	8e e8                	mov    %eax,%gs
     48c:	e9 fc ff ff ff       	jmp    48d <interrupt_27+0x17>
     491:	58                   	pop    %eax
     492:	8e d8                	mov    %eax,%ds
     494:	8e c0                	mov    %eax,%es
     496:	8e e0                	mov    %eax,%fs
     498:	8e e8                	mov    %eax,%gs
     49a:	61                   	popa   
     49b:	83 c4 08             	add    $0x8,%esp
     49e:	fb                   	sti    
     49f:	cf                   	iret   

000004a0 <interrupt_28>:
     4a0:	fa                   	cli    
     4a1:	6a 00                	push   $0x0
     4a3:	6a 1c                	push   $0x1c
     4a5:	60                   	pusha  
     4a6:	66 8c d8             	mov    %ds,%ax
     4a9:	50                   	push   %eax
     4aa:	66 b8 10 00          	mov    $0x10,%ax
     4ae:	8e d8                	mov    %eax,%ds
     4b0:	8e c0                	mov    %eax,%es
     4b2:	8e e0                	mov    %eax,%fs
     4b4:	8e e8                	mov    %eax,%gs
     4b6:	e9 fc ff ff ff       	jmp    4b7 <interrupt_28+0x17>
     4bb:	58                   	pop    %eax
     4bc:	8e d8                	mov    %eax,%ds
     4be:	8e c0                	mov    %eax,%es
     4c0:	8e e0                	mov    %eax,%fs
     4c2:	8e e8                	mov    %eax,%gs
     4c4:	61                   	popa   
     4c5:	83 c4 08             	add    $0x8,%esp
     4c8:	fb                   	sti    
     4c9:	cf                   	iret   

000004ca <interrupt_29>:
     4ca:	fa                   	cli    
     4cb:	6a 00                	push   $0x0
     4cd:	6a 1d                	push   $0x1d
     4cf:	60                   	pusha  
     4d0:	66 8c d8             	mov    %ds,%ax
     4d3:	50                   	push   %eax
     4d4:	66 b8 10 00          	mov    $0x10,%ax
     4d8:	8e d8                	mov    %eax,%ds
     4da:	8e c0                	mov    %eax,%es
     4dc:	8e e0                	mov    %eax,%fs
     4de:	8e e8                	mov    %eax,%gs
     4e0:	e9 fc ff ff ff       	jmp    4e1 <interrupt_29+0x17>
     4e5:	58                   	pop    %eax
     4e6:	8e d8                	mov    %eax,%ds
     4e8:	8e c0                	mov    %eax,%es
     4ea:	8e e0                	mov    %eax,%fs
     4ec:	8e e8                	mov    %eax,%gs
     4ee:	61                   	popa   
     4ef:	83 c4 08             	add    $0x8,%esp
     4f2:	fb                   	sti    
     4f3:	cf                   	iret   

000004f4 <interrupt_30>:
     4f4:	fa                   	cli    
     4f5:	6a 00                	push   $0x0
     4f7:	6a 1e                	push   $0x1e
     4f9:	60                   	pusha  
     4fa:	66 8c d8             	mov    %ds,%ax
     4fd:	50                   	push   %eax
     4fe:	66 b8 10 00          	mov    $0x10,%ax
     502:	8e d8                	mov    %eax,%ds
     504:	8e c0                	mov    %eax,%es
     506:	8e e0                	mov    %eax,%fs
     508:	8e e8                	mov    %eax,%gs
     50a:	e9 fc ff ff ff       	jmp    50b <interrupt_30+0x17>
     50f:	58                   	pop    %eax
     510:	8e d8                	mov    %eax,%ds
     512:	8e c0                	mov    %eax,%es
     514:	8e e0                	mov    %eax,%fs
     516:	8e e8                	mov    %eax,%gs
     518:	61                   	popa   
     519:	83 c4 08             	add    $0x8,%esp
     51c:	fb                   	sti    
     51d:	cf                   	iret   

0000051e <interrupt_31>:
     51e:	fa                   	cli    
     51f:	6a 00                	push   $0x0
     521:	6a 1f                	push   $0x1f
     523:	60                   	pusha  
     524:	66 8c d8             	mov    %ds,%ax
     527:	50                   	push   %eax
     528:	66 b8 10 00          	mov    $0x10,%ax
     52c:	8e d8                	mov    %eax,%ds
     52e:	8e c0                	mov    %eax,%es
     530:	8e e0                	mov    %eax,%fs
     532:	8e e8                	mov    %eax,%gs
     534:	e9 fc ff ff ff       	jmp    535 <interrupt_31+0x17>
     539:	58                   	pop    %eax
     53a:	8e d8                	mov    %eax,%ds
     53c:	8e c0                	mov    %eax,%es
     53e:	8e e0                	mov    %eax,%fs
     540:	8e e8                	mov    %eax,%gs
     542:	61                   	popa   
     543:	83 c4 08             	add    $0x8,%esp
     546:	fb                   	sti    
     547:	cf                   	iret   

00000548 <interrupt_32>:
     548:	fa                   	cli    
     549:	6a 00                	push   $0x0
     54b:	6a 20                	push   $0x20
     54d:	60                   	pusha  
     54e:	66 8c d8             	mov    %ds,%ax
     551:	50                   	push   %eax
     552:	66 b8 10 00          	mov    $0x10,%ax
     556:	8e d8                	mov    %eax,%ds
     558:	8e c0                	mov    %eax,%es
     55a:	8e e0                	mov    %eax,%fs
     55c:	8e e8                	mov    %eax,%gs
     55e:	e9 fc ff ff ff       	jmp    55f <interrupt_32+0x17>
     563:	58                   	pop    %eax
     564:	8e d8                	mov    %eax,%ds
     566:	8e c0                	mov    %eax,%es
     568:	8e e0                	mov    %eax,%fs
     56a:	8e e8                	mov    %eax,%gs
     56c:	61                   	popa   
     56d:	83 c4 08             	add    $0x8,%esp
     570:	fb                   	sti    
     571:	cf                   	iret   

00000572 <interrupt_33>:
     572:	fa                   	cli    
     573:	6a 00                	push   $0x0
     575:	6a 21                	push   $0x21
     577:	60                   	pusha  
     578:	66 8c d8             	mov    %ds,%ax
     57b:	50                   	push   %eax
     57c:	66 b8 10 00          	mov    $0x10,%ax
     580:	8e d8                	mov    %eax,%ds
     582:	8e c0                	mov    %eax,%es
     584:	8e e0                	mov    %eax,%fs
     586:	8e e8                	mov    %eax,%gs
     588:	e9 fc ff ff ff       	jmp    589 <interrupt_33+0x17>
     58d:	58                   	pop    %eax
     58e:	8e d8                	mov    %eax,%ds
     590:	8e c0                	mov    %eax,%es
     592:	8e e0                	mov    %eax,%fs
     594:	8e e8                	mov    %eax,%gs
     596:	61                   	popa   
     597:	83 c4 08             	add    $0x8,%esp
     59a:	fb                   	sti    
     59b:	cf                   	iret   

0000059c <interrupt_34>:
     59c:	fa                   	cli    
     59d:	6a 00                	push   $0x0
     59f:	6a 22                	push   $0x22
     5a1:	60                   	pusha  
     5a2:	66 8c d8             	mov    %ds,%ax
     5a5:	50                   	push   %eax
     5a6:	66 b8 10 00          	mov    $0x10,%ax
     5aa:	8e d8                	mov    %eax,%ds
     5ac:	8e c0                	mov    %eax,%es
     5ae:	8e e0                	mov    %eax,%fs
     5b0:	8e e8                	mov    %eax,%gs
     5b2:	e9 fc ff ff ff       	jmp    5b3 <interrupt_34+0x17>
     5b7:	58                   	pop    %eax
     5b8:	8e d8                	mov    %eax,%ds
     5ba:	8e c0                	mov    %eax,%es
     5bc:	8e e0                	mov    %eax,%fs
     5be:	8e e8                	mov    %eax,%gs
     5c0:	61                   	popa   
     5c1:	83 c4 08             	add    $0x8,%esp
     5c4:	fb                   	sti    
     5c5:	cf                   	iret   

000005c6 <interrupt_35>:
     5c6:	fa                   	cli    
     5c7:	6a 00                	push   $0x0
     5c9:	6a 23                	push   $0x23
     5cb:	60                   	pusha  
     5cc:	66 8c d8             	mov    %ds,%ax
     5cf:	50                   	push   %eax
     5d0:	66 b8 10 00          	mov    $0x10,%ax
     5d4:	8e d8                	mov    %eax,%ds
     5d6:	8e c0                	mov    %eax,%es
     5d8:	8e e0                	mov    %eax,%fs
     5da:	8e e8                	mov    %eax,%gs
     5dc:	e9 fc ff ff ff       	jmp    5dd <interrupt_35+0x17>
     5e1:	58                   	pop    %eax
     5e2:	8e d8                	mov    %eax,%ds
     5e4:	8e c0                	mov    %eax,%es
     5e6:	8e e0                	mov    %eax,%fs
     5e8:	8e e8                	mov    %eax,%gs
     5ea:	61                   	popa   
     5eb:	83 c4 08             	add    $0x8,%esp
     5ee:	fb                   	sti    
     5ef:	cf                   	iret   

000005f0 <interrupt_36>:
     5f0:	fa                   	cli    
     5f1:	6a 00                	push   $0x0
     5f3:	6a 24                	push   $0x24
     5f5:	60                   	pusha  
     5f6:	66 8c d8             	mov    %ds,%ax
     5f9:	50                   	push   %eax
     5fa:	66 b8 10 00          	mov    $0x10,%ax
     5fe:	8e d8                	mov    %eax,%ds
     600:	8e c0                	mov    %eax,%es
     602:	8e e0                	mov    %eax,%fs
     604:	8e e8                	mov    %eax,%gs
     606:	e9 fc ff ff ff       	jmp    607 <interrupt_36+0x17>
     60b:	58                   	pop    %eax
     60c:	8e d8                	mov    %eax,%ds
     60e:	8e c0                	mov    %eax,%es
     610:	8e e0                	mov    %eax,%fs
     612:	8e e8                	mov    %eax,%gs
     614:	61                   	popa   
     615:	83 c4 08             	add    $0x8,%esp
     618:	fb                   	sti    
     619:	cf                   	iret   

0000061a <interrupt_37>:
     61a:	fa                   	cli    
     61b:	6a 00                	push   $0x0
     61d:	6a 25                	push   $0x25
     61f:	60                   	pusha  
     620:	66 8c d8             	mov    %ds,%ax
     623:	50                   	push   %eax
     624:	66 b8 10 00          	mov    $0x10,%ax
     628:	8e d8                	mov    %eax,%ds
     62a:	8e c0                	mov    %eax,%es
     62c:	8e e0                	mov    %eax,%fs
     62e:	8e e8                	mov    %eax,%gs
     630:	e9 fc ff ff ff       	jmp    631 <interrupt_37+0x17>
     635:	58                   	pop    %eax
     636:	8e d8                	mov    %eax,%ds
     638:	8e c0                	mov    %eax,%es
     63a:	8e e0                	mov    %eax,%fs
     63c:	8e e8                	mov    %eax,%gs
     63e:	61                   	popa   
     63f:	83 c4 08             	add    $0x8,%esp
     642:	fb                   	sti    
     643:	cf                   	iret   

00000644 <interrupt_38>:
     644:	fa                   	cli    
     645:	6a 00                	push   $0x0
     647:	6a 26                	push   $0x26
     649:	60                   	pusha  
     64a:	66 8c d8             	mov    %ds,%ax
     64d:	50                   	push   %eax
     64e:	66 b8 10 00          	mov    $0x10,%ax
     652:	8e d8                	mov    %eax,%ds
     654:	8e c0                	mov    %eax,%es
     656:	8e e0                	mov    %eax,%fs
     658:	8e e8                	mov    %eax,%gs
     65a:	e9 fc ff ff ff       	jmp    65b <interrupt_38+0x17>
     65f:	58                   	pop    %eax
     660:	8e d8                	mov    %eax,%ds
     662:	8e c0                	mov    %eax,%es
     664:	8e e0                	mov    %eax,%fs
     666:	8e e8                	mov    %eax,%gs
     668:	61                   	popa   
     669:	83 c4 08             	add    $0x8,%esp
     66c:	fb                   	sti    
     66d:	cf                   	iret   

0000066e <interrupt_39>:
     66e:	fa                   	cli    
     66f:	6a 00                	push   $0x0
     671:	6a 27                	push   $0x27
     673:	60                   	pusha  
     674:	66 8c d8             	mov    %ds,%ax
     677:	50                   	push   %eax
     678:	66 b8 10 00          	mov    $0x10,%ax
     67c:	8e d8                	mov    %eax,%ds
     67e:	8e c0                	mov    %eax,%es
     680:	8e e0                	mov    %eax,%fs
     682:	8e e8                	mov    %eax,%gs
     684:	e9 fc ff ff ff       	jmp    685 <interrupt_39+0x17>
     689:	58                   	pop    %eax
     68a:	8e d8                	mov    %eax,%ds
     68c:	8e c0                	mov    %eax,%es
     68e:	8e e0                	mov    %eax,%fs
     690:	8e e8                	mov    %eax,%gs
     692:	61                   	popa   
     693:	83 c4 08             	add    $0x8,%esp
     696:	fb                   	sti    
     697:	cf                   	iret   

00000698 <interrupt_40>:
     698:	fa                   	cli    
     699:	6a 00                	push   $0x0
     69b:	6a 28                	push   $0x28
     69d:	60                   	pusha  
     69e:	66 8c d8             	mov    %ds,%ax
     6a1:	50                   	push   %eax
     6a2:	66 b8 10 00          	mov    $0x10,%ax
     6a6:	8e d8                	mov    %eax,%ds
     6a8:	8e c0                	mov    %eax,%es
     6aa:	8e e0                	mov    %eax,%fs
     6ac:	8e e8                	mov    %eax,%gs
     6ae:	e9 fc ff ff ff       	jmp    6af <interrupt_40+0x17>
     6b3:	58                   	pop    %eax
     6b4:	8e d8                	mov    %eax,%ds
     6b6:	8e c0                	mov    %eax,%es
     6b8:	8e e0                	mov    %eax,%fs
     6ba:	8e e8                	mov    %eax,%gs
     6bc:	61                   	popa   
     6bd:	83 c4 08             	add    $0x8,%esp
     6c0:	fb                   	sti    
     6c1:	cf                   	iret   

000006c2 <interrupt_41>:
     6c2:	fa                   	cli    
     6c3:	6a 00                	push   $0x0
     6c5:	6a 29                	push   $0x29
     6c7:	60                   	pusha  
     6c8:	66 8c d8             	mov    %ds,%ax
     6cb:	50                   	push   %eax
     6cc:	66 b8 10 00          	mov    $0x10,%ax
     6d0:	8e d8                	mov    %eax,%ds
     6d2:	8e c0                	mov    %eax,%es
     6d4:	8e e0                	mov    %eax,%fs
     6d6:	8e e8                	mov    %eax,%gs
     6d8:	e9 fc ff ff ff       	jmp    6d9 <interrupt_41+0x17>
     6dd:	58                   	pop    %eax
     6de:	8e d8                	mov    %eax,%ds
     6e0:	8e c0                	mov    %eax,%es
     6e2:	8e e0                	mov    %eax,%fs
     6e4:	8e e8                	mov    %eax,%gs
     6e6:	61                   	popa   
     6e7:	83 c4 08             	add    $0x8,%esp
     6ea:	fb                   	sti    
     6eb:	cf                   	iret   

000006ec <interrupt_42>:
     6ec:	fa                   	cli    
     6ed:	6a 00                	push   $0x0
     6ef:	6a 2a                	push   $0x2a
     6f1:	60                   	pusha  
     6f2:	66 8c d8             	mov    %ds,%ax
     6f5:	50                   	push   %eax
     6f6:	66 b8 10 00          	mov    $0x10,%ax
     6fa:	8e d8                	mov    %eax,%ds
     6fc:	8e c0                	mov    %eax,%es
     6fe:	8e e0                	mov    %eax,%fs
     700:	8e e8                	mov    %eax,%gs
     702:	e9 fc ff ff ff       	jmp    703 <interrupt_42+0x17>
     707:	58                   	pop    %eax
     708:	8e d8                	mov    %eax,%ds
     70a:	8e c0                	mov    %eax,%es
     70c:	8e e0                	mov    %eax,%fs
     70e:	8e e8                	mov    %eax,%gs
     710:	61                   	popa   
     711:	83 c4 08             	add    $0x8,%esp
     714:	fb                   	sti    
     715:	cf                   	iret   

00000716 <interrupt_43>:
     716:	fa                   	cli    
     717:	6a 00                	push   $0x0
     719:	6a 2b                	push   $0x2b
     71b:	60                   	pusha  
     71c:	66 8c d8             	mov    %ds,%ax
     71f:	50                   	push   %eax
     720:	66 b8 10 00          	mov    $0x10,%ax
     724:	8e d8                	mov    %eax,%ds
     726:	8e c0                	mov    %eax,%es
     728:	8e e0                	mov    %eax,%fs
     72a:	8e e8                	mov    %eax,%gs
     72c:	e9 fc ff ff ff       	jmp    72d <interrupt_43+0x17>
     731:	58                   	pop    %eax
     732:	8e d8                	mov    %eax,%ds
     734:	8e c0                	mov    %eax,%es
     736:	8e e0                	mov    %eax,%fs
     738:	8e e8                	mov    %eax,%gs
     73a:	61                   	popa   
     73b:	83 c4 08             	add    $0x8,%esp
     73e:	fb                   	sti    
     73f:	cf                   	iret   

00000740 <interrupt_44>:
     740:	fa                   	cli    
     741:	6a 00                	push   $0x0
     743:	6a 2c                	push   $0x2c
     745:	60                   	pusha  
     746:	66 8c d8             	mov    %ds,%ax
     749:	50                   	push   %eax
     74a:	66 b8 10 00          	mov    $0x10,%ax
     74e:	8e d8                	mov    %eax,%ds
     750:	8e c0                	mov    %eax,%es
     752:	8e e0                	mov    %eax,%fs
     754:	8e e8                	mov    %eax,%gs
     756:	e9 fc ff ff ff       	jmp    757 <interrupt_44+0x17>
     75b:	58                   	pop    %eax
     75c:	8e d8                	mov    %eax,%ds
     75e:	8e c0                	mov    %eax,%es
     760:	8e e0                	mov    %eax,%fs
     762:	8e e8                	mov    %eax,%gs
     764:	61                   	popa   
     765:	83 c4 08             	add    $0x8,%esp
     768:	fb                   	sti    
     769:	cf                   	iret   

0000076a <interrupt_45>:
     76a:	fa                   	cli    
     76b:	6a 00                	push   $0x0
     76d:	6a 2d                	push   $0x2d
     76f:	60                   	pusha  
     770:	66 8c d8             	mov    %ds,%ax
     773:	50                   	push   %eax
     774:	66 b8 10 00          	mov    $0x10,%ax
     778:	8e d8                	mov    %eax,%ds
     77a:	8e c0                	mov    %eax,%es
     77c:	8e e0                	mov    %eax,%fs
     77e:	8e e8                	mov    %eax,%gs
     780:	e9 fc ff ff ff       	jmp    781 <interrupt_45+0x17>
     785:	58                   	pop    %eax
     786:	8e d8                	mov    %eax,%ds
     788:	8e c0                	mov    %eax,%es
     78a:	8e e0                	mov    %eax,%fs
     78c:	8e e8                	mov    %eax,%gs
     78e:	61                   	popa   
     78f:	83 c4 08             	add    $0x8,%esp
     792:	fb                   	sti    
     793:	cf                   	iret   

00000794 <interrupt_46>:
     794:	fa                   	cli    
     795:	6a 00                	push   $0x0
     797:	6a 2e                	push   $0x2e
     799:	60                   	pusha  
     79a:	66 8c d8             	mov    %ds,%ax
     79d:	50                   	push   %eax
     79e:	66 b8 10 00          	mov    $0x10,%ax
     7a2:	8e d8                	mov    %eax,%ds
     7a4:	8e c0                	mov    %eax,%es
     7a6:	8e e0                	mov    %eax,%fs
     7a8:	8e e8                	mov    %eax,%gs
     7aa:	e9 fc ff ff ff       	jmp    7ab <interrupt_46+0x17>
     7af:	58                   	pop    %eax
     7b0:	8e d8                	mov    %eax,%ds
     7b2:	8e c0                	mov    %eax,%es
     7b4:	8e e0                	mov    %eax,%fs
     7b6:	8e e8                	mov    %eax,%gs
     7b8:	61                   	popa   
     7b9:	83 c4 08             	add    $0x8,%esp
     7bc:	fb                   	sti    
     7bd:	cf                   	iret   

000007be <interrupt_47>:
     7be:	fa                   	cli    
     7bf:	6a 00                	push   $0x0
     7c1:	6a 2f                	push   $0x2f
     7c3:	60                   	pusha  
     7c4:	66 8c d8             	mov    %ds,%ax
     7c7:	50                   	push   %eax
     7c8:	66 b8 10 00          	mov    $0x10,%ax
     7cc:	8e d8                	mov    %eax,%ds
     7ce:	8e c0                	mov    %eax,%es
     7d0:	8e e0                	mov    %eax,%fs
     7d2:	8e e8                	mov    %eax,%gs
     7d4:	e9 fc ff ff ff       	jmp    7d5 <interrupt_47+0x17>
     7d9:	58                   	pop    %eax
     7da:	8e d8                	mov    %eax,%ds
     7dc:	8e c0                	mov    %eax,%es
     7de:	8e e0                	mov    %eax,%fs
     7e0:	8e e8                	mov    %eax,%gs
     7e2:	61                   	popa   
     7e3:	83 c4 08             	add    $0x8,%esp
     7e6:	fb                   	sti    
     7e7:	cf                   	iret   

000007e8 <interrupt_48>:
     7e8:	fa                   	cli    
     7e9:	6a 00                	push   $0x0
     7eb:	6a 30                	push   $0x30
     7ed:	60                   	pusha  
     7ee:	66 8c d8             	mov    %ds,%ax
     7f1:	50                   	push   %eax
     7f2:	66 b8 10 00          	mov    $0x10,%ax
     7f6:	8e d8                	mov    %eax,%ds
     7f8:	8e c0                	mov    %eax,%es
     7fa:	8e e0                	mov    %eax,%fs
     7fc:	8e e8                	mov    %eax,%gs
     7fe:	e9 fc ff ff ff       	jmp    7ff <interrupt_48+0x17>
     803:	58                   	pop    %eax
     804:	8e d8                	mov    %eax,%ds
     806:	8e c0                	mov    %eax,%es
     808:	8e e0                	mov    %eax,%fs
     80a:	8e e8                	mov    %eax,%gs
     80c:	61                   	popa   
     80d:	83 c4 08             	add    $0x8,%esp
     810:	fb                   	sti    
     811:	cf                   	iret   

00000812 <interrupt_49>:
     812:	fa                   	cli    
     813:	6a 00                	push   $0x0
     815:	6a 31                	push   $0x31
     817:	60                   	pusha  
     818:	66 8c d8             	mov    %ds,%ax
     81b:	50                   	push   %eax
     81c:	66 b8 10 00          	mov    $0x10,%ax
     820:	8e d8                	mov    %eax,%ds
     822:	8e c0                	mov    %eax,%es
     824:	8e e0                	mov    %eax,%fs
     826:	8e e8                	mov    %eax,%gs
     828:	e9 fc ff ff ff       	jmp    829 <interrupt_49+0x17>
     82d:	58                   	pop    %eax
     82e:	8e d8                	mov    %eax,%ds
     830:	8e c0                	mov    %eax,%es
     832:	8e e0                	mov    %eax,%fs
     834:	8e e8                	mov    %eax,%gs
     836:	61                   	popa   
     837:	83 c4 08             	add    $0x8,%esp
     83a:	fb                   	sti    
     83b:	cf                   	iret   

0000083c <interrupt_50>:
     83c:	fa                   	cli    
     83d:	6a 00                	push   $0x0
     83f:	6a 32                	push   $0x32
     841:	60                   	pusha  
     842:	66 8c d8             	mov    %ds,%ax
     845:	50                   	push   %eax
     846:	66 b8 10 00          	mov    $0x10,%ax
     84a:	8e d8                	mov    %eax,%ds
     84c:	8e c0                	mov    %eax,%es
     84e:	8e e0                	mov    %eax,%fs
     850:	8e e8                	mov    %eax,%gs
     852:	e9 fc ff ff ff       	jmp    853 <interrupt_50+0x17>
     857:	58                   	pop    %eax
     858:	8e d8                	mov    %eax,%ds
     85a:	8e c0                	mov    %eax,%es
     85c:	8e e0                	mov    %eax,%fs
     85e:	8e e8                	mov    %eax,%gs
     860:	61                   	popa   
     861:	83 c4 08             	add    $0x8,%esp
     864:	fb                   	sti    
     865:	cf                   	iret   

00000866 <interrupt_51>:
     866:	fa                   	cli    
     867:	6a 00                	push   $0x0
     869:	6a 33                	push   $0x33
     86b:	60                   	pusha  
     86c:	66 8c d8             	mov    %ds,%ax
     86f:	50                   	push   %eax
     870:	66 b8 10 00          	mov    $0x10,%ax
     874:	8e d8                	mov    %eax,%ds
     876:	8e c0                	mov    %eax,%es
     878:	8e e0                	mov    %eax,%fs
     87a:	8e e8                	mov    %eax,%gs
     87c:	e9 fc ff ff ff       	jmp    87d <interrupt_51+0x17>
     881:	58                   	pop    %eax
     882:	8e d8                	mov    %eax,%ds
     884:	8e c0                	mov    %eax,%es
     886:	8e e0                	mov    %eax,%fs
     888:	8e e8                	mov    %eax,%gs
     88a:	61                   	popa   
     88b:	83 c4 08             	add    $0x8,%esp
     88e:	fb                   	sti    
     88f:	cf                   	iret   

00000890 <interrupt_52>:
     890:	fa                   	cli    
     891:	6a 00                	push   $0x0
     893:	6a 34                	push   $0x34
     895:	60                   	pusha  
     896:	66 8c d8             	mov    %ds,%ax
     899:	50                   	push   %eax
     89a:	66 b8 10 00          	mov    $0x10,%ax
     89e:	8e d8                	mov    %eax,%ds
     8a0:	8e c0                	mov    %eax,%es
     8a2:	8e e0                	mov    %eax,%fs
     8a4:	8e e8                	mov    %eax,%gs
     8a6:	e9 fc ff ff ff       	jmp    8a7 <interrupt_52+0x17>
     8ab:	58                   	pop    %eax
     8ac:	8e d8                	mov    %eax,%ds
     8ae:	8e c0                	mov    %eax,%es
     8b0:	8e e0                	mov    %eax,%fs
     8b2:	8e e8                	mov    %eax,%gs
     8b4:	61                   	popa   
     8b5:	83 c4 08             	add    $0x8,%esp
     8b8:	fb                   	sti    
     8b9:	cf                   	iret   

000008ba <interrupt_53>:
     8ba:	fa                   	cli    
     8bb:	6a 00                	push   $0x0
     8bd:	6a 35                	push   $0x35
     8bf:	60                   	pusha  
     8c0:	66 8c d8             	mov    %ds,%ax
     8c3:	50                   	push   %eax
     8c4:	66 b8 10 00          	mov    $0x10,%ax
     8c8:	8e d8                	mov    %eax,%ds
     8ca:	8e c0                	mov    %eax,%es
     8cc:	8e e0                	mov    %eax,%fs
     8ce:	8e e8                	mov    %eax,%gs
     8d0:	e9 fc ff ff ff       	jmp    8d1 <interrupt_53+0x17>
     8d5:	58                   	pop    %eax
     8d6:	8e d8                	mov    %eax,%ds
     8d8:	8e c0                	mov    %eax,%es
     8da:	8e e0                	mov    %eax,%fs
     8dc:	8e e8                	mov    %eax,%gs
     8de:	61                   	popa   
     8df:	83 c4 08             	add    $0x8,%esp
     8e2:	fb                   	sti    
     8e3:	cf                   	iret   

000008e4 <interrupt_54>:
     8e4:	fa                   	cli    
     8e5:	6a 00                	push   $0x0
     8e7:	6a 36                	push   $0x36
     8e9:	60                   	pusha  
     8ea:	66 8c d8             	mov    %ds,%ax
     8ed:	50                   	push   %eax
     8ee:	66 b8 10 00          	mov    $0x10,%ax
     8f2:	8e d8                	mov    %eax,%ds
     8f4:	8e c0                	mov    %eax,%es
     8f6:	8e e0                	mov    %eax,%fs
     8f8:	8e e8                	mov    %eax,%gs
     8fa:	e9 fc ff ff ff       	jmp    8fb <interrupt_54+0x17>
     8ff:	58                   	pop    %eax
     900:	8e d8                	mov    %eax,%ds
     902:	8e c0                	mov    %eax,%es
     904:	8e e0                	mov    %eax,%fs
     906:	8e e8                	mov    %eax,%gs
     908:	61                   	popa   
     909:	83 c4 08             	add    $0x8,%esp
     90c:	fb                   	sti    
     90d:	cf                   	iret   

0000090e <interrupt_55>:
     90e:	fa                   	cli    
     90f:	6a 00                	push   $0x0
     911:	6a 37                	push   $0x37
     913:	60                   	pusha  
     914:	66 8c d8             	mov    %ds,%ax
     917:	50                   	push   %eax
     918:	66 b8 10 00          	mov    $0x10,%ax
     91c:	8e d8                	mov    %eax,%ds
     91e:	8e c0                	mov    %eax,%es
     920:	8e e0                	mov    %eax,%fs
     922:	8e e8                	mov    %eax,%gs
     924:	e9 fc ff ff ff       	jmp    925 <interrupt_55+0x17>
     929:	58                   	pop    %eax
     92a:	8e d8                	mov    %eax,%ds
     92c:	8e c0                	mov    %eax,%es
     92e:	8e e0                	mov    %eax,%fs
     930:	8e e8                	mov    %eax,%gs
     932:	61                   	popa   
     933:	83 c4 08             	add    $0x8,%esp
     936:	fb                   	sti    
     937:	cf                   	iret   

00000938 <interrupt_56>:
     938:	fa                   	cli    
     939:	6a 00                	push   $0x0
     93b:	6a 38                	push   $0x38
     93d:	60                   	pusha  
     93e:	66 8c d8             	mov    %ds,%ax
     941:	50                   	push   %eax
     942:	66 b8 10 00          	mov    $0x10,%ax
     946:	8e d8                	mov    %eax,%ds
     948:	8e c0                	mov    %eax,%es
     94a:	8e e0                	mov    %eax,%fs
     94c:	8e e8                	mov    %eax,%gs
     94e:	e9 fc ff ff ff       	jmp    94f <interrupt_56+0x17>
     953:	58                   	pop    %eax
     954:	8e d8                	mov    %eax,%ds
     956:	8e c0                	mov    %eax,%es
     958:	8e e0                	mov    %eax,%fs
     95a:	8e e8                	mov    %eax,%gs
     95c:	61                   	popa   
     95d:	83 c4 08             	add    $0x8,%esp
     960:	fb                   	sti    
     961:	cf                   	iret   

00000962 <interrupt_57>:
     962:	fa                   	cli    
     963:	6a 00                	push   $0x0
     965:	6a 39                	push   $0x39
     967:	60                   	pusha  
     968:	66 8c d8             	mov    %ds,%ax
     96b:	50                   	push   %eax
     96c:	66 b8 10 00          	mov    $0x10,%ax
     970:	8e d8                	mov    %eax,%ds
     972:	8e c0                	mov    %eax,%es
     974:	8e e0                	mov    %eax,%fs
     976:	8e e8                	mov    %eax,%gs
     978:	e9 fc ff ff ff       	jmp    979 <interrupt_57+0x17>
     97d:	58                   	pop    %eax
     97e:	8e d8                	mov    %eax,%ds
     980:	8e c0                	mov    %eax,%es
     982:	8e e0                	mov    %eax,%fs
     984:	8e e8                	mov    %eax,%gs
     986:	61                   	popa   
     987:	83 c4 08             	add    $0x8,%esp
     98a:	fb                   	sti    
     98b:	cf                   	iret   

0000098c <interrupt_58>:
     98c:	fa                   	cli    
     98d:	6a 00                	push   $0x0
     98f:	6a 3a                	push   $0x3a
     991:	60                   	pusha  
     992:	66 8c d8             	mov    %ds,%ax
     995:	50                   	push   %eax
     996:	66 b8 10 00          	mov    $0x10,%ax
     99a:	8e d8                	mov    %eax,%ds
     99c:	8e c0                	mov    %eax,%es
     99e:	8e e0                	mov    %eax,%fs
     9a0:	8e e8                	mov    %eax,%gs
     9a2:	e9 fc ff ff ff       	jmp    9a3 <interrupt_58+0x17>
     9a7:	58                   	pop    %eax
     9a8:	8e d8                	mov    %eax,%ds
     9aa:	8e c0                	mov    %eax,%es
     9ac:	8e e0                	mov    %eax,%fs
     9ae:	8e e8                	mov    %eax,%gs
     9b0:	61                   	popa   
     9b1:	83 c4 08             	add    $0x8,%esp
     9b4:	fb                   	sti    
     9b5:	cf                   	iret   

000009b6 <interrupt_59>:
     9b6:	fa                   	cli    
     9b7:	6a 00                	push   $0x0
     9b9:	6a 3b                	push   $0x3b
     9bb:	60                   	pusha  
     9bc:	66 8c d8             	mov    %ds,%ax
     9bf:	50                   	push   %eax
     9c0:	66 b8 10 00          	mov    $0x10,%ax
     9c4:	8e d8                	mov    %eax,%ds
     9c6:	8e c0                	mov    %eax,%es
     9c8:	8e e0                	mov    %eax,%fs
     9ca:	8e e8                	mov    %eax,%gs
     9cc:	e9 fc ff ff ff       	jmp    9cd <interrupt_59+0x17>
     9d1:	58                   	pop    %eax
     9d2:	8e d8                	mov    %eax,%ds
     9d4:	8e c0                	mov    %eax,%es
     9d6:	8e e0                	mov    %eax,%fs
     9d8:	8e e8                	mov    %eax,%gs
     9da:	61                   	popa   
     9db:	83 c4 08             	add    $0x8,%esp
     9de:	fb                   	sti    
     9df:	cf                   	iret   

000009e0 <interrupt_60>:
     9e0:	fa                   	cli    
     9e1:	6a 00                	push   $0x0
     9e3:	6a 3c                	push   $0x3c
     9e5:	60                   	pusha  
     9e6:	66 8c d8             	mov    %ds,%ax
     9e9:	50                   	push   %eax
     9ea:	66 b8 10 00          	mov    $0x10,%ax
     9ee:	8e d8                	mov    %eax,%ds
     9f0:	8e c0                	mov    %eax,%es
     9f2:	8e e0                	mov    %eax,%fs
     9f4:	8e e8                	mov    %eax,%gs
     9f6:	e9 fc ff ff ff       	jmp    9f7 <interrupt_60+0x17>
     9fb:	58                   	pop    %eax
     9fc:	8e d8                	mov    %eax,%ds
     9fe:	8e c0                	mov    %eax,%es
     a00:	8e e0                	mov    %eax,%fs
     a02:	8e e8                	mov    %eax,%gs
     a04:	61                   	popa   
     a05:	83 c4 08             	add    $0x8,%esp
     a08:	fb                   	sti    
     a09:	cf                   	iret   

00000a0a <interrupt_61>:
     a0a:	fa                   	cli    
     a0b:	6a 00                	push   $0x0
     a0d:	6a 3d                	push   $0x3d
     a0f:	60                   	pusha  
     a10:	66 8c d8             	mov    %ds,%ax
     a13:	50                   	push   %eax
     a14:	66 b8 10 00          	mov    $0x10,%ax
     a18:	8e d8                	mov    %eax,%ds
     a1a:	8e c0                	mov    %eax,%es
     a1c:	8e e0                	mov    %eax,%fs
     a1e:	8e e8                	mov    %eax,%gs
     a20:	e9 fc ff ff ff       	jmp    a21 <interrupt_61+0x17>
     a25:	58                   	pop    %eax
     a26:	8e d8                	mov    %eax,%ds
     a28:	8e c0                	mov    %eax,%es
     a2a:	8e e0                	mov    %eax,%fs
     a2c:	8e e8                	mov    %eax,%gs
     a2e:	61                   	popa   
     a2f:	83 c4 08             	add    $0x8,%esp
     a32:	fb                   	sti    
     a33:	cf                   	iret   

00000a34 <interrupt_62>:
     a34:	fa                   	cli    
     a35:	6a 00                	push   $0x0
     a37:	6a 3e                	push   $0x3e
     a39:	60                   	pusha  
     a3a:	66 8c d8             	mov    %ds,%ax
     a3d:	50                   	push   %eax
     a3e:	66 b8 10 00          	mov    $0x10,%ax
     a42:	8e d8                	mov    %eax,%ds
     a44:	8e c0                	mov    %eax,%es
     a46:	8e e0                	mov    %eax,%fs
     a48:	8e e8                	mov    %eax,%gs
     a4a:	e9 fc ff ff ff       	jmp    a4b <interrupt_62+0x17>
     a4f:	58                   	pop    %eax
     a50:	8e d8                	mov    %eax,%ds
     a52:	8e c0                	mov    %eax,%es
     a54:	8e e0                	mov    %eax,%fs
     a56:	8e e8                	mov    %eax,%gs
     a58:	61                   	popa   
     a59:	83 c4 08             	add    $0x8,%esp
     a5c:	fb                   	sti    
     a5d:	cf                   	iret   

00000a5e <interrupt_63>:
     a5e:	fa                   	cli    
     a5f:	6a 00                	push   $0x0
     a61:	6a 3f                	push   $0x3f
     a63:	60                   	pusha  
     a64:	66 8c d8             	mov    %ds,%ax
     a67:	50                   	push   %eax
     a68:	66 b8 10 00          	mov    $0x10,%ax
     a6c:	8e d8                	mov    %eax,%ds
     a6e:	8e c0                	mov    %eax,%es
     a70:	8e e0                	mov    %eax,%fs
     a72:	8e e8                	mov    %eax,%gs
     a74:	e9 fc ff ff ff       	jmp    a75 <interrupt_63+0x17>
     a79:	58                   	pop    %eax
     a7a:	8e d8                	mov    %eax,%ds
     a7c:	8e c0                	mov    %eax,%es
     a7e:	8e e0                	mov    %eax,%fs
     a80:	8e e8                	mov    %eax,%gs
     a82:	61                   	popa   
     a83:	83 c4 08             	add    $0x8,%esp
     a86:	fb                   	sti    
     a87:	cf                   	iret   

00000a88 <interrupt_64>:
     a88:	fa                   	cli    
     a89:	6a 00                	push   $0x0
     a8b:	6a 40                	push   $0x40
     a8d:	60                   	pusha  
     a8e:	66 8c d8             	mov    %ds,%ax
     a91:	50                   	push   %eax
     a92:	66 b8 10 00          	mov    $0x10,%ax
     a96:	8e d8                	mov    %eax,%ds
     a98:	8e c0                	mov    %eax,%es
     a9a:	8e e0                	mov    %eax,%fs
     a9c:	8e e8                	mov    %eax,%gs
     a9e:	e9 fc ff ff ff       	jmp    a9f <interrupt_64+0x17>
     aa3:	58                   	pop    %eax
     aa4:	8e d8                	mov    %eax,%ds
     aa6:	8e c0                	mov    %eax,%es
     aa8:	8e e0                	mov    %eax,%fs
     aaa:	8e e8                	mov    %eax,%gs
     aac:	61                   	popa   
     aad:	83 c4 08             	add    $0x8,%esp
     ab0:	fb                   	sti    
     ab1:	cf                   	iret   

00000ab2 <interrupt_65>:
     ab2:	fa                   	cli    
     ab3:	6a 00                	push   $0x0
     ab5:	6a 41                	push   $0x41
     ab7:	60                   	pusha  
     ab8:	66 8c d8             	mov    %ds,%ax
     abb:	50                   	push   %eax
     abc:	66 b8 10 00          	mov    $0x10,%ax
     ac0:	8e d8                	mov    %eax,%ds
     ac2:	8e c0                	mov    %eax,%es
     ac4:	8e e0                	mov    %eax,%fs
     ac6:	8e e8                	mov    %eax,%gs
     ac8:	e9 fc ff ff ff       	jmp    ac9 <interrupt_65+0x17>
     acd:	58                   	pop    %eax
     ace:	8e d8                	mov    %eax,%ds
     ad0:	8e c0                	mov    %eax,%es
     ad2:	8e e0                	mov    %eax,%fs
     ad4:	8e e8                	mov    %eax,%gs
     ad6:	61                   	popa   
     ad7:	83 c4 08             	add    $0x8,%esp
     ada:	fb                   	sti    
     adb:	cf                   	iret   

00000adc <interrupt_66>:
     adc:	fa                   	cli    
     add:	6a 00                	push   $0x0
     adf:	6a 42                	push   $0x42
     ae1:	60                   	pusha  
     ae2:	66 8c d8             	mov    %ds,%ax
     ae5:	50                   	push   %eax
     ae6:	66 b8 10 00          	mov    $0x10,%ax
     aea:	8e d8                	mov    %eax,%ds
     aec:	8e c0                	mov    %eax,%es
     aee:	8e e0                	mov    %eax,%fs
     af0:	8e e8                	mov    %eax,%gs
     af2:	e9 fc ff ff ff       	jmp    af3 <interrupt_66+0x17>
     af7:	58                   	pop    %eax
     af8:	8e d8                	mov    %eax,%ds
     afa:	8e c0                	mov    %eax,%es
     afc:	8e e0                	mov    %eax,%fs
     afe:	8e e8                	mov    %eax,%gs
     b00:	61                   	popa   
     b01:	83 c4 08             	add    $0x8,%esp
     b04:	fb                   	sti    
     b05:	cf                   	iret   

00000b06 <interrupt_67>:
     b06:	fa                   	cli    
     b07:	6a 00                	push   $0x0
     b09:	6a 43                	push   $0x43
     b0b:	60                   	pusha  
     b0c:	66 8c d8             	mov    %ds,%ax
     b0f:	50                   	push   %eax
     b10:	66 b8 10 00          	mov    $0x10,%ax
     b14:	8e d8                	mov    %eax,%ds
     b16:	8e c0                	mov    %eax,%es
     b18:	8e e0                	mov    %eax,%fs
     b1a:	8e e8                	mov    %eax,%gs
     b1c:	e9 fc ff ff ff       	jmp    b1d <interrupt_67+0x17>
     b21:	58                   	pop    %eax
     b22:	8e d8                	mov    %eax,%ds
     b24:	8e c0                	mov    %eax,%es
     b26:	8e e0                	mov    %eax,%fs
     b28:	8e e8                	mov    %eax,%gs
     b2a:	61                   	popa   
     b2b:	83 c4 08             	add    $0x8,%esp
     b2e:	fb                   	sti    
     b2f:	cf                   	iret   

00000b30 <interrupt_68>:
     b30:	fa                   	cli    
     b31:	6a 00                	push   $0x0
     b33:	6a 44                	push   $0x44
     b35:	60                   	pusha  
     b36:	66 8c d8             	mov    %ds,%ax
     b39:	50                   	push   %eax
     b3a:	66 b8 10 00          	mov    $0x10,%ax
     b3e:	8e d8                	mov    %eax,%ds
     b40:	8e c0                	mov    %eax,%es
     b42:	8e e0                	mov    %eax,%fs
     b44:	8e e8                	mov    %eax,%gs
     b46:	e9 fc ff ff ff       	jmp    b47 <interrupt_68+0x17>
     b4b:	58                   	pop    %eax
     b4c:	8e d8                	mov    %eax,%ds
     b4e:	8e c0                	mov    %eax,%es
     b50:	8e e0                	mov    %eax,%fs
     b52:	8e e8                	mov    %eax,%gs
     b54:	61                   	popa   
     b55:	83 c4 08             	add    $0x8,%esp
     b58:	fb                   	sti    
     b59:	cf                   	iret   

00000b5a <interrupt_69>:
     b5a:	fa                   	cli    
     b5b:	6a 00                	push   $0x0
     b5d:	6a 45                	push   $0x45
     b5f:	60                   	pusha  
     b60:	66 8c d8             	mov    %ds,%ax
     b63:	50                   	push   %eax
     b64:	66 b8 10 00          	mov    $0x10,%ax
     b68:	8e d8                	mov    %eax,%ds
     b6a:	8e c0                	mov    %eax,%es
     b6c:	8e e0                	mov    %eax,%fs
     b6e:	8e e8                	mov    %eax,%gs
     b70:	e9 fc ff ff ff       	jmp    b71 <interrupt_69+0x17>
     b75:	58                   	pop    %eax
     b76:	8e d8                	mov    %eax,%ds
     b78:	8e c0                	mov    %eax,%es
     b7a:	8e e0                	mov    %eax,%fs
     b7c:	8e e8                	mov    %eax,%gs
     b7e:	61                   	popa   
     b7f:	83 c4 08             	add    $0x8,%esp
     b82:	fb                   	sti    
     b83:	cf                   	iret   

00000b84 <interrupt_70>:
     b84:	fa                   	cli    
     b85:	6a 00                	push   $0x0
     b87:	6a 46                	push   $0x46
     b89:	60                   	pusha  
     b8a:	66 8c d8             	mov    %ds,%ax
     b8d:	50                   	push   %eax
     b8e:	66 b8 10 00          	mov    $0x10,%ax
     b92:	8e d8                	mov    %eax,%ds
     b94:	8e c0                	mov    %eax,%es
     b96:	8e e0                	mov    %eax,%fs
     b98:	8e e8                	mov    %eax,%gs
     b9a:	e9 fc ff ff ff       	jmp    b9b <interrupt_70+0x17>
     b9f:	58                   	pop    %eax
     ba0:	8e d8                	mov    %eax,%ds
     ba2:	8e c0                	mov    %eax,%es
     ba4:	8e e0                	mov    %eax,%fs
     ba6:	8e e8                	mov    %eax,%gs
     ba8:	61                   	popa   
     ba9:	83 c4 08             	add    $0x8,%esp
     bac:	fb                   	sti    
     bad:	cf                   	iret   

00000bae <interrupt_71>:
     bae:	fa                   	cli    
     baf:	6a 00                	push   $0x0
     bb1:	6a 47                	push   $0x47
     bb3:	60                   	pusha  
     bb4:	66 8c d8             	mov    %ds,%ax
     bb7:	50                   	push   %eax
     bb8:	66 b8 10 00          	mov    $0x10,%ax
     bbc:	8e d8                	mov    %eax,%ds
     bbe:	8e c0                	mov    %eax,%es
     bc0:	8e e0                	mov    %eax,%fs
     bc2:	8e e8                	mov    %eax,%gs
     bc4:	e9 fc ff ff ff       	jmp    bc5 <interrupt_71+0x17>
     bc9:	58                   	pop    %eax
     bca:	8e d8                	mov    %eax,%ds
     bcc:	8e c0                	mov    %eax,%es
     bce:	8e e0                	mov    %eax,%fs
     bd0:	8e e8                	mov    %eax,%gs
     bd2:	61                   	popa   
     bd3:	83 c4 08             	add    $0x8,%esp
     bd6:	fb                   	sti    
     bd7:	cf                   	iret   

00000bd8 <interrupt_72>:
     bd8:	fa                   	cli    
     bd9:	6a 00                	push   $0x0
     bdb:	6a 48                	push   $0x48
     bdd:	60                   	pusha  
     bde:	66 8c d8             	mov    %ds,%ax
     be1:	50                   	push   %eax
     be2:	66 b8 10 00          	mov    $0x10,%ax
     be6:	8e d8                	mov    %eax,%ds
     be8:	8e c0                	mov    %eax,%es
     bea:	8e e0                	mov    %eax,%fs
     bec:	8e e8                	mov    %eax,%gs
     bee:	e9 fc ff ff ff       	jmp    bef <interrupt_72+0x17>
     bf3:	58                   	pop    %eax
     bf4:	8e d8                	mov    %eax,%ds
     bf6:	8e c0                	mov    %eax,%es
     bf8:	8e e0                	mov    %eax,%fs
     bfa:	8e e8                	mov    %eax,%gs
     bfc:	61                   	popa   
     bfd:	83 c4 08             	add    $0x8,%esp
     c00:	fb                   	sti    
     c01:	cf                   	iret   

00000c02 <interrupt_73>:
     c02:	fa                   	cli    
     c03:	6a 00                	push   $0x0
     c05:	6a 49                	push   $0x49
     c07:	60                   	pusha  
     c08:	66 8c d8             	mov    %ds,%ax
     c0b:	50                   	push   %eax
     c0c:	66 b8 10 00          	mov    $0x10,%ax
     c10:	8e d8                	mov    %eax,%ds
     c12:	8e c0                	mov    %eax,%es
     c14:	8e e0                	mov    %eax,%fs
     c16:	8e e8                	mov    %eax,%gs
     c18:	e9 fc ff ff ff       	jmp    c19 <interrupt_73+0x17>
     c1d:	58                   	pop    %eax
     c1e:	8e d8                	mov    %eax,%ds
     c20:	8e c0                	mov    %eax,%es
     c22:	8e e0                	mov    %eax,%fs
     c24:	8e e8                	mov    %eax,%gs
     c26:	61                   	popa   
     c27:	83 c4 08             	add    $0x8,%esp
     c2a:	fb                   	sti    
     c2b:	cf                   	iret   

00000c2c <interrupt_74>:
     c2c:	fa                   	cli    
     c2d:	6a 00                	push   $0x0
     c2f:	6a 4a                	push   $0x4a
     c31:	60                   	pusha  
     c32:	66 8c d8             	mov    %ds,%ax
     c35:	50                   	push   %eax
     c36:	66 b8 10 00          	mov    $0x10,%ax
     c3a:	8e d8                	mov    %eax,%ds
     c3c:	8e c0                	mov    %eax,%es
     c3e:	8e e0                	mov    %eax,%fs
     c40:	8e e8                	mov    %eax,%gs
     c42:	e9 fc ff ff ff       	jmp    c43 <interrupt_74+0x17>
     c47:	58                   	pop    %eax
     c48:	8e d8                	mov    %eax,%ds
     c4a:	8e c0                	mov    %eax,%es
     c4c:	8e e0                	mov    %eax,%fs
     c4e:	8e e8                	mov    %eax,%gs
     c50:	61                   	popa   
     c51:	83 c4 08             	add    $0x8,%esp
     c54:	fb                   	sti    
     c55:	cf                   	iret   

00000c56 <interrupt_75>:
     c56:	fa                   	cli    
     c57:	6a 00                	push   $0x0
     c59:	6a 4b                	push   $0x4b
     c5b:	60                   	pusha  
     c5c:	66 8c d8             	mov    %ds,%ax
     c5f:	50                   	push   %eax
     c60:	66 b8 10 00          	mov    $0x10,%ax
     c64:	8e d8                	mov    %eax,%ds
     c66:	8e c0                	mov    %eax,%es
     c68:	8e e0                	mov    %eax,%fs
     c6a:	8e e8                	mov    %eax,%gs
     c6c:	e9 fc ff ff ff       	jmp    c6d <interrupt_75+0x17>
     c71:	58                   	pop    %eax
     c72:	8e d8                	mov    %eax,%ds
     c74:	8e c0                	mov    %eax,%es
     c76:	8e e0                	mov    %eax,%fs
     c78:	8e e8                	mov    %eax,%gs
     c7a:	61                   	popa   
     c7b:	83 c4 08             	add    $0x8,%esp
     c7e:	fb                   	sti    
     c7f:	cf                   	iret   

00000c80 <interrupt_76>:
     c80:	fa                   	cli    
     c81:	6a 00                	push   $0x0
     c83:	6a 4c                	push   $0x4c
     c85:	60                   	pusha  
     c86:	66 8c d8             	mov    %ds,%ax
     c89:	50                   	push   %eax
     c8a:	66 b8 10 00          	mov    $0x10,%ax
     c8e:	8e d8                	mov    %eax,%ds
     c90:	8e c0                	mov    %eax,%es
     c92:	8e e0                	mov    %eax,%fs
     c94:	8e e8                	mov    %eax,%gs
     c96:	e9 fc ff ff ff       	jmp    c97 <interrupt_76+0x17>
     c9b:	58                   	pop    %eax
     c9c:	8e d8                	mov    %eax,%ds
     c9e:	8e c0                	mov    %eax,%es
     ca0:	8e e0                	mov    %eax,%fs
     ca2:	8e e8                	mov    %eax,%gs
     ca4:	61                   	popa   
     ca5:	83 c4 08             	add    $0x8,%esp
     ca8:	fb                   	sti    
     ca9:	cf                   	iret   

00000caa <interrupt_77>:
     caa:	fa                   	cli    
     cab:	6a 00                	push   $0x0
     cad:	6a 4d                	push   $0x4d
     caf:	60                   	pusha  
     cb0:	66 8c d8             	mov    %ds,%ax
     cb3:	50                   	push   %eax
     cb4:	66 b8 10 00          	mov    $0x10,%ax
     cb8:	8e d8                	mov    %eax,%ds
     cba:	8e c0                	mov    %eax,%es
     cbc:	8e e0                	mov    %eax,%fs
     cbe:	8e e8                	mov    %eax,%gs
     cc0:	e9 fc ff ff ff       	jmp    cc1 <interrupt_77+0x17>
     cc5:	58                   	pop    %eax
     cc6:	8e d8                	mov    %eax,%ds
     cc8:	8e c0                	mov    %eax,%es
     cca:	8e e0                	mov    %eax,%fs
     ccc:	8e e8                	mov    %eax,%gs
     cce:	61                   	popa   
     ccf:	83 c4 08             	add    $0x8,%esp
     cd2:	fb                   	sti    
     cd3:	cf                   	iret   

00000cd4 <interrupt_78>:
     cd4:	fa                   	cli    
     cd5:	6a 00                	push   $0x0
     cd7:	6a 4e                	push   $0x4e
     cd9:	60                   	pusha  
     cda:	66 8c d8             	mov    %ds,%ax
     cdd:	50                   	push   %eax
     cde:	66 b8 10 00          	mov    $0x10,%ax
     ce2:	8e d8                	mov    %eax,%ds
     ce4:	8e c0                	mov    %eax,%es
     ce6:	8e e0                	mov    %eax,%fs
     ce8:	8e e8                	mov    %eax,%gs
     cea:	e9 fc ff ff ff       	jmp    ceb <interrupt_78+0x17>
     cef:	58                   	pop    %eax
     cf0:	8e d8                	mov    %eax,%ds
     cf2:	8e c0                	mov    %eax,%es
     cf4:	8e e0                	mov    %eax,%fs
     cf6:	8e e8                	mov    %eax,%gs
     cf8:	61                   	popa   
     cf9:	83 c4 08             	add    $0x8,%esp
     cfc:	fb                   	sti    
     cfd:	cf                   	iret   

00000cfe <interrupt_79>:
     cfe:	fa                   	cli    
     cff:	6a 00                	push   $0x0
     d01:	6a 4f                	push   $0x4f
     d03:	60                   	pusha  
     d04:	66 8c d8             	mov    %ds,%ax
     d07:	50                   	push   %eax
     d08:	66 b8 10 00          	mov    $0x10,%ax
     d0c:	8e d8                	mov    %eax,%ds
     d0e:	8e c0                	mov    %eax,%es
     d10:	8e e0                	mov    %eax,%fs
     d12:	8e e8                	mov    %eax,%gs
     d14:	e9 fc ff ff ff       	jmp    d15 <interrupt_79+0x17>
     d19:	58                   	pop    %eax
     d1a:	8e d8                	mov    %eax,%ds
     d1c:	8e c0                	mov    %eax,%es
     d1e:	8e e0                	mov    %eax,%fs
     d20:	8e e8                	mov    %eax,%gs
     d22:	61                   	popa   
     d23:	83 c4 08             	add    $0x8,%esp
     d26:	fb                   	sti    
     d27:	cf                   	iret   

00000d28 <interrupt_80>:
     d28:	fa                   	cli    
     d29:	6a 00                	push   $0x0
     d2b:	6a 50                	push   $0x50
     d2d:	60                   	pusha  
     d2e:	66 8c d8             	mov    %ds,%ax
     d31:	50                   	push   %eax
     d32:	66 b8 10 00          	mov    $0x10,%ax
     d36:	8e d8                	mov    %eax,%ds
     d38:	8e c0                	mov    %eax,%es
     d3a:	8e e0                	mov    %eax,%fs
     d3c:	8e e8                	mov    %eax,%gs
     d3e:	e9 fc ff ff ff       	jmp    d3f <interrupt_80+0x17>
     d43:	58                   	pop    %eax
     d44:	8e d8                	mov    %eax,%ds
     d46:	8e c0                	mov    %eax,%es
     d48:	8e e0                	mov    %eax,%fs
     d4a:	8e e8                	mov    %eax,%gs
     d4c:	61                   	popa   
     d4d:	83 c4 08             	add    $0x8,%esp
     d50:	fb                   	sti    
     d51:	cf                   	iret   

00000d52 <interrupt_81>:
     d52:	fa                   	cli    
     d53:	6a 00                	push   $0x0
     d55:	6a 51                	push   $0x51
     d57:	60                   	pusha  
     d58:	66 8c d8             	mov    %ds,%ax
     d5b:	50                   	push   %eax
     d5c:	66 b8 10 00          	mov    $0x10,%ax
     d60:	8e d8                	mov    %eax,%ds
     d62:	8e c0                	mov    %eax,%es
     d64:	8e e0                	mov    %eax,%fs
     d66:	8e e8                	mov    %eax,%gs
     d68:	e9 fc ff ff ff       	jmp    d69 <interrupt_81+0x17>
     d6d:	58                   	pop    %eax
     d6e:	8e d8                	mov    %eax,%ds
     d70:	8e c0                	mov    %eax,%es
     d72:	8e e0                	mov    %eax,%fs
     d74:	8e e8                	mov    %eax,%gs
     d76:	61                   	popa   
     d77:	83 c4 08             	add    $0x8,%esp
     d7a:	fb                   	sti    
     d7b:	cf                   	iret   

00000d7c <interrupt_82>:
     d7c:	fa                   	cli    
     d7d:	6a 00                	push   $0x0
     d7f:	6a 52                	push   $0x52
     d81:	60                   	pusha  
     d82:	66 8c d8             	mov    %ds,%ax
     d85:	50                   	push   %eax
     d86:	66 b8 10 00          	mov    $0x10,%ax
     d8a:	8e d8                	mov    %eax,%ds
     d8c:	8e c0                	mov    %eax,%es
     d8e:	8e e0                	mov    %eax,%fs
     d90:	8e e8                	mov    %eax,%gs
     d92:	e9 fc ff ff ff       	jmp    d93 <interrupt_82+0x17>
     d97:	58                   	pop    %eax
     d98:	8e d8                	mov    %eax,%ds
     d9a:	8e c0                	mov    %eax,%es
     d9c:	8e e0                	mov    %eax,%fs
     d9e:	8e e8                	mov    %eax,%gs
     da0:	61                   	popa   
     da1:	83 c4 08             	add    $0x8,%esp
     da4:	fb                   	sti    
     da5:	cf                   	iret   

00000da6 <interrupt_83>:
     da6:	fa                   	cli    
     da7:	6a 00                	push   $0x0
     da9:	6a 53                	push   $0x53
     dab:	60                   	pusha  
     dac:	66 8c d8             	mov    %ds,%ax
     daf:	50                   	push   %eax
     db0:	66 b8 10 00          	mov    $0x10,%ax
     db4:	8e d8                	mov    %eax,%ds
     db6:	8e c0                	mov    %eax,%es
     db8:	8e e0                	mov    %eax,%fs
     dba:	8e e8                	mov    %eax,%gs
     dbc:	e9 fc ff ff ff       	jmp    dbd <interrupt_83+0x17>
     dc1:	58                   	pop    %eax
     dc2:	8e d8                	mov    %eax,%ds
     dc4:	8e c0                	mov    %eax,%es
     dc6:	8e e0                	mov    %eax,%fs
     dc8:	8e e8                	mov    %eax,%gs
     dca:	61                   	popa   
     dcb:	83 c4 08             	add    $0x8,%esp
     dce:	fb                   	sti    
     dcf:	cf                   	iret   

00000dd0 <interrupt_84>:
     dd0:	fa                   	cli    
     dd1:	6a 00                	push   $0x0
     dd3:	6a 54                	push   $0x54
     dd5:	60                   	pusha  
     dd6:	66 8c d8             	mov    %ds,%ax
     dd9:	50                   	push   %eax
     dda:	66 b8 10 00          	mov    $0x10,%ax
     dde:	8e d8                	mov    %eax,%ds
     de0:	8e c0                	mov    %eax,%es
     de2:	8e e0                	mov    %eax,%fs
     de4:	8e e8                	mov    %eax,%gs
     de6:	e9 fc ff ff ff       	jmp    de7 <interrupt_84+0x17>
     deb:	58                   	pop    %eax
     dec:	8e d8                	mov    %eax,%ds
     dee:	8e c0                	mov    %eax,%es
     df0:	8e e0                	mov    %eax,%fs
     df2:	8e e8                	mov    %eax,%gs
     df4:	61                   	popa   
     df5:	83 c4 08             	add    $0x8,%esp
     df8:	fb                   	sti    
     df9:	cf                   	iret   

00000dfa <interrupt_85>:
     dfa:	fa                   	cli    
     dfb:	6a 00                	push   $0x0
     dfd:	6a 55                	push   $0x55
     dff:	60                   	pusha  
     e00:	66 8c d8             	mov    %ds,%ax
     e03:	50                   	push   %eax
     e04:	66 b8 10 00          	mov    $0x10,%ax
     e08:	8e d8                	mov    %eax,%ds
     e0a:	8e c0                	mov    %eax,%es
     e0c:	8e e0                	mov    %eax,%fs
     e0e:	8e e8                	mov    %eax,%gs
     e10:	e9 fc ff ff ff       	jmp    e11 <interrupt_85+0x17>
     e15:	58                   	pop    %eax
     e16:	8e d8                	mov    %eax,%ds
     e18:	8e c0                	mov    %eax,%es
     e1a:	8e e0                	mov    %eax,%fs
     e1c:	8e e8                	mov    %eax,%gs
     e1e:	61                   	popa   
     e1f:	83 c4 08             	add    $0x8,%esp
     e22:	fb                   	sti    
     e23:	cf                   	iret   

00000e24 <interrupt_86>:
     e24:	fa                   	cli    
     e25:	6a 00                	push   $0x0
     e27:	6a 56                	push   $0x56
     e29:	60                   	pusha  
     e2a:	66 8c d8             	mov    %ds,%ax
     e2d:	50                   	push   %eax
     e2e:	66 b8 10 00          	mov    $0x10,%ax
     e32:	8e d8                	mov    %eax,%ds
     e34:	8e c0                	mov    %eax,%es
     e36:	8e e0                	mov    %eax,%fs
     e38:	8e e8                	mov    %eax,%gs
     e3a:	e9 fc ff ff ff       	jmp    e3b <interrupt_86+0x17>
     e3f:	58                   	pop    %eax
     e40:	8e d8                	mov    %eax,%ds
     e42:	8e c0                	mov    %eax,%es
     e44:	8e e0                	mov    %eax,%fs
     e46:	8e e8                	mov    %eax,%gs
     e48:	61                   	popa   
     e49:	83 c4 08             	add    $0x8,%esp
     e4c:	fb                   	sti    
     e4d:	cf                   	iret   

00000e4e <interrupt_87>:
     e4e:	fa                   	cli    
     e4f:	6a 00                	push   $0x0
     e51:	6a 57                	push   $0x57
     e53:	60                   	pusha  
     e54:	66 8c d8             	mov    %ds,%ax
     e57:	50                   	push   %eax
     e58:	66 b8 10 00          	mov    $0x10,%ax
     e5c:	8e d8                	mov    %eax,%ds
     e5e:	8e c0                	mov    %eax,%es
     e60:	8e e0                	mov    %eax,%fs
     e62:	8e e8                	mov    %eax,%gs
     e64:	e9 fc ff ff ff       	jmp    e65 <interrupt_87+0x17>
     e69:	58                   	pop    %eax
     e6a:	8e d8                	mov    %eax,%ds
     e6c:	8e c0                	mov    %eax,%es
     e6e:	8e e0                	mov    %eax,%fs
     e70:	8e e8                	mov    %eax,%gs
     e72:	61                   	popa   
     e73:	83 c4 08             	add    $0x8,%esp
     e76:	fb                   	sti    
     e77:	cf                   	iret   

00000e78 <interrupt_88>:
     e78:	fa                   	cli    
     e79:	6a 00                	push   $0x0
     e7b:	6a 58                	push   $0x58
     e7d:	60                   	pusha  
     e7e:	66 8c d8             	mov    %ds,%ax
     e81:	50                   	push   %eax
     e82:	66 b8 10 00          	mov    $0x10,%ax
     e86:	8e d8                	mov    %eax,%ds
     e88:	8e c0                	mov    %eax,%es
     e8a:	8e e0                	mov    %eax,%fs
     e8c:	8e e8                	mov    %eax,%gs
     e8e:	e9 fc ff ff ff       	jmp    e8f <interrupt_88+0x17>
     e93:	58                   	pop    %eax
     e94:	8e d8                	mov    %eax,%ds
     e96:	8e c0                	mov    %eax,%es
     e98:	8e e0                	mov    %eax,%fs
     e9a:	8e e8                	mov    %eax,%gs
     e9c:	61                   	popa   
     e9d:	83 c4 08             	add    $0x8,%esp
     ea0:	fb                   	sti    
     ea1:	cf                   	iret   

00000ea2 <interrupt_89>:
     ea2:	fa                   	cli    
     ea3:	6a 00                	push   $0x0
     ea5:	6a 59                	push   $0x59
     ea7:	60                   	pusha  
     ea8:	66 8c d8             	mov    %ds,%ax
     eab:	50                   	push   %eax
     eac:	66 b8 10 00          	mov    $0x10,%ax
     eb0:	8e d8                	mov    %eax,%ds
     eb2:	8e c0                	mov    %eax,%es
     eb4:	8e e0                	mov    %eax,%fs
     eb6:	8e e8                	mov    %eax,%gs
     eb8:	e9 fc ff ff ff       	jmp    eb9 <interrupt_89+0x17>
     ebd:	58                   	pop    %eax
     ebe:	8e d8                	mov    %eax,%ds
     ec0:	8e c0                	mov    %eax,%es
     ec2:	8e e0                	mov    %eax,%fs
     ec4:	8e e8                	mov    %eax,%gs
     ec6:	61                   	popa   
     ec7:	83 c4 08             	add    $0x8,%esp
     eca:	fb                   	sti    
     ecb:	cf                   	iret   

00000ecc <interrupt_90>:
     ecc:	fa                   	cli    
     ecd:	6a 00                	push   $0x0
     ecf:	6a 5a                	push   $0x5a
     ed1:	60                   	pusha  
     ed2:	66 8c d8             	mov    %ds,%ax
     ed5:	50                   	push   %eax
     ed6:	66 b8 10 00          	mov    $0x10,%ax
     eda:	8e d8                	mov    %eax,%ds
     edc:	8e c0                	mov    %eax,%es
     ede:	8e e0                	mov    %eax,%fs
     ee0:	8e e8                	mov    %eax,%gs
     ee2:	e9 fc ff ff ff       	jmp    ee3 <interrupt_90+0x17>
     ee7:	58                   	pop    %eax
     ee8:	8e d8                	mov    %eax,%ds
     eea:	8e c0                	mov    %eax,%es
     eec:	8e e0                	mov    %eax,%fs
     eee:	8e e8                	mov    %eax,%gs
     ef0:	61                   	popa   
     ef1:	83 c4 08             	add    $0x8,%esp
     ef4:	fb                   	sti    
     ef5:	cf                   	iret   

00000ef6 <interrupt_91>:
     ef6:	fa                   	cli    
     ef7:	6a 00                	push   $0x0
     ef9:	6a 5b                	push   $0x5b
     efb:	60                   	pusha  
     efc:	66 8c d8             	mov    %ds,%ax
     eff:	50                   	push   %eax
     f00:	66 b8 10 00          	mov    $0x10,%ax
     f04:	8e d8                	mov    %eax,%ds
     f06:	8e c0                	mov    %eax,%es
     f08:	8e e0                	mov    %eax,%fs
     f0a:	8e e8                	mov    %eax,%gs
     f0c:	e9 fc ff ff ff       	jmp    f0d <interrupt_91+0x17>
     f11:	58                   	pop    %eax
     f12:	8e d8                	mov    %eax,%ds
     f14:	8e c0                	mov    %eax,%es
     f16:	8e e0                	mov    %eax,%fs
     f18:	8e e8                	mov    %eax,%gs
     f1a:	61                   	popa   
     f1b:	83 c4 08             	add    $0x8,%esp
     f1e:	fb                   	sti    
     f1f:	cf                   	iret   

00000f20 <interrupt_92>:
     f20:	fa                   	cli    
     f21:	6a 00                	push   $0x0
     f23:	6a 5c                	push   $0x5c
     f25:	60                   	pusha  
     f26:	66 8c d8             	mov    %ds,%ax
     f29:	50                   	push   %eax
     f2a:	66 b8 10 00          	mov    $0x10,%ax
     f2e:	8e d8                	mov    %eax,%ds
     f30:	8e c0                	mov    %eax,%es
     f32:	8e e0                	mov    %eax,%fs
     f34:	8e e8                	mov    %eax,%gs
     f36:	e9 fc ff ff ff       	jmp    f37 <interrupt_92+0x17>
     f3b:	58                   	pop    %eax
     f3c:	8e d8                	mov    %eax,%ds
     f3e:	8e c0                	mov    %eax,%es
     f40:	8e e0                	mov    %eax,%fs
     f42:	8e e8                	mov    %eax,%gs
     f44:	61                   	popa   
     f45:	83 c4 08             	add    $0x8,%esp
     f48:	fb                   	sti    
     f49:	cf                   	iret   

00000f4a <interrupt_93>:
     f4a:	fa                   	cli    
     f4b:	6a 00                	push   $0x0
     f4d:	6a 5d                	push   $0x5d
     f4f:	60                   	pusha  
     f50:	66 8c d8             	mov    %ds,%ax
     f53:	50                   	push   %eax
     f54:	66 b8 10 00          	mov    $0x10,%ax
     f58:	8e d8                	mov    %eax,%ds
     f5a:	8e c0                	mov    %eax,%es
     f5c:	8e e0                	mov    %eax,%fs
     f5e:	8e e8                	mov    %eax,%gs
     f60:	e9 fc ff ff ff       	jmp    f61 <interrupt_93+0x17>
     f65:	58                   	pop    %eax
     f66:	8e d8                	mov    %eax,%ds
     f68:	8e c0                	mov    %eax,%es
     f6a:	8e e0                	mov    %eax,%fs
     f6c:	8e e8                	mov    %eax,%gs
     f6e:	61                   	popa   
     f6f:	83 c4 08             	add    $0x8,%esp
     f72:	fb                   	sti    
     f73:	cf                   	iret   

00000f74 <interrupt_94>:
     f74:	fa                   	cli    
     f75:	6a 00                	push   $0x0
     f77:	6a 5e                	push   $0x5e
     f79:	60                   	pusha  
     f7a:	66 8c d8             	mov    %ds,%ax
     f7d:	50                   	push   %eax
     f7e:	66 b8 10 00          	mov    $0x10,%ax
     f82:	8e d8                	mov    %eax,%ds
     f84:	8e c0                	mov    %eax,%es
     f86:	8e e0                	mov    %eax,%fs
     f88:	8e e8                	mov    %eax,%gs
     f8a:	e9 fc ff ff ff       	jmp    f8b <interrupt_94+0x17>
     f8f:	58                   	pop    %eax
     f90:	8e d8                	mov    %eax,%ds
     f92:	8e c0                	mov    %eax,%es
     f94:	8e e0                	mov    %eax,%fs
     f96:	8e e8                	mov    %eax,%gs
     f98:	61                   	popa   
     f99:	83 c4 08             	add    $0x8,%esp
     f9c:	fb                   	sti    
     f9d:	cf                   	iret   

00000f9e <interrupt_95>:
     f9e:	fa                   	cli    
     f9f:	6a 00                	push   $0x0
     fa1:	6a 5f                	push   $0x5f
     fa3:	60                   	pusha  
     fa4:	66 8c d8             	mov    %ds,%ax
     fa7:	50                   	push   %eax
     fa8:	66 b8 10 00          	mov    $0x10,%ax
     fac:	8e d8                	mov    %eax,%ds
     fae:	8e c0                	mov    %eax,%es
     fb0:	8e e0                	mov    %eax,%fs
     fb2:	8e e8                	mov    %eax,%gs
     fb4:	e9 fc ff ff ff       	jmp    fb5 <interrupt_95+0x17>
     fb9:	58                   	pop    %eax
     fba:	8e d8                	mov    %eax,%ds
     fbc:	8e c0                	mov    %eax,%es
     fbe:	8e e0                	mov    %eax,%fs
     fc0:	8e e8                	mov    %eax,%gs
     fc2:	61                   	popa   
     fc3:	83 c4 08             	add    $0x8,%esp
     fc6:	fb                   	sti    
     fc7:	cf                   	iret   

00000fc8 <interrupt_96>:
     fc8:	fa                   	cli    
     fc9:	6a 00                	push   $0x0
     fcb:	6a 60                	push   $0x60
     fcd:	60                   	pusha  
     fce:	66 8c d8             	mov    %ds,%ax
     fd1:	50                   	push   %eax
     fd2:	66 b8 10 00          	mov    $0x10,%ax
     fd6:	8e d8                	mov    %eax,%ds
     fd8:	8e c0                	mov    %eax,%es
     fda:	8e e0                	mov    %eax,%fs
     fdc:	8e e8                	mov    %eax,%gs
     fde:	e9 fc ff ff ff       	jmp    fdf <interrupt_96+0x17>
     fe3:	58                   	pop    %eax
     fe4:	8e d8                	mov    %eax,%ds
     fe6:	8e c0                	mov    %eax,%es
     fe8:	8e e0                	mov    %eax,%fs
     fea:	8e e8                	mov    %eax,%gs
     fec:	61                   	popa   
     fed:	83 c4 08             	add    $0x8,%esp
     ff0:	fb                   	sti    
     ff1:	cf                   	iret   

00000ff2 <interrupt_97>:
     ff2:	fa                   	cli    
     ff3:	6a 00                	push   $0x0
     ff5:	6a 61                	push   $0x61
     ff7:	60                   	pusha  
     ff8:	66 8c d8             	mov    %ds,%ax
     ffb:	50                   	push   %eax
     ffc:	66 b8 10 00          	mov    $0x10,%ax
    1000:	8e d8                	mov    %eax,%ds
    1002:	8e c0                	mov    %eax,%es
    1004:	8e e0                	mov    %eax,%fs
    1006:	8e e8                	mov    %eax,%gs
    1008:	e9 fc ff ff ff       	jmp    1009 <interrupt_97+0x17>
    100d:	58                   	pop    %eax
    100e:	8e d8                	mov    %eax,%ds
    1010:	8e c0                	mov    %eax,%es
    1012:	8e e0                	mov    %eax,%fs
    1014:	8e e8                	mov    %eax,%gs
    1016:	61                   	popa   
    1017:	83 c4 08             	add    $0x8,%esp
    101a:	fb                   	sti    
    101b:	cf                   	iret   

0000101c <interrupt_98>:
    101c:	fa                   	cli    
    101d:	6a 00                	push   $0x0
    101f:	6a 62                	push   $0x62
    1021:	60                   	pusha  
    1022:	66 8c d8             	mov    %ds,%ax
    1025:	50                   	push   %eax
    1026:	66 b8 10 00          	mov    $0x10,%ax
    102a:	8e d8                	mov    %eax,%ds
    102c:	8e c0                	mov    %eax,%es
    102e:	8e e0                	mov    %eax,%fs
    1030:	8e e8                	mov    %eax,%gs
    1032:	e9 fc ff ff ff       	jmp    1033 <interrupt_98+0x17>
    1037:	58                   	pop    %eax
    1038:	8e d8                	mov    %eax,%ds
    103a:	8e c0                	mov    %eax,%es
    103c:	8e e0                	mov    %eax,%fs
    103e:	8e e8                	mov    %eax,%gs
    1040:	61                   	popa   
    1041:	83 c4 08             	add    $0x8,%esp
    1044:	fb                   	sti    
    1045:	cf                   	iret   

00001046 <interrupt_99>:
    1046:	fa                   	cli    
    1047:	6a 00                	push   $0x0
    1049:	6a 63                	push   $0x63
    104b:	60                   	pusha  
    104c:	66 8c d8             	mov    %ds,%ax
    104f:	50                   	push   %eax
    1050:	66 b8 10 00          	mov    $0x10,%ax
    1054:	8e d8                	mov    %eax,%ds
    1056:	8e c0                	mov    %eax,%es
    1058:	8e e0                	mov    %eax,%fs
    105a:	8e e8                	mov    %eax,%gs
    105c:	e9 fc ff ff ff       	jmp    105d <interrupt_99+0x17>
    1061:	58                   	pop    %eax
    1062:	8e d8                	mov    %eax,%ds
    1064:	8e c0                	mov    %eax,%es
    1066:	8e e0                	mov    %eax,%fs
    1068:	8e e8                	mov    %eax,%gs
    106a:	61                   	popa   
    106b:	83 c4 08             	add    $0x8,%esp
    106e:	fb                   	sti    
    106f:	cf                   	iret   

00001070 <interrupt_100>:
    1070:	fa                   	cli    
    1071:	6a 00                	push   $0x0
    1073:	6a 64                	push   $0x64
    1075:	60                   	pusha  
    1076:	66 8c d8             	mov    %ds,%ax
    1079:	50                   	push   %eax
    107a:	66 b8 10 00          	mov    $0x10,%ax
    107e:	8e d8                	mov    %eax,%ds
    1080:	8e c0                	mov    %eax,%es
    1082:	8e e0                	mov    %eax,%fs
    1084:	8e e8                	mov    %eax,%gs
    1086:	e9 fc ff ff ff       	jmp    1087 <interrupt_100+0x17>
    108b:	58                   	pop    %eax
    108c:	8e d8                	mov    %eax,%ds
    108e:	8e c0                	mov    %eax,%es
    1090:	8e e0                	mov    %eax,%fs
    1092:	8e e8                	mov    %eax,%gs
    1094:	61                   	popa   
    1095:	83 c4 08             	add    $0x8,%esp
    1098:	fb                   	sti    
    1099:	cf                   	iret   

0000109a <interrupt_101>:
    109a:	fa                   	cli    
    109b:	6a 00                	push   $0x0
    109d:	6a 65                	push   $0x65
    109f:	60                   	pusha  
    10a0:	66 8c d8             	mov    %ds,%ax
    10a3:	50                   	push   %eax
    10a4:	66 b8 10 00          	mov    $0x10,%ax
    10a8:	8e d8                	mov    %eax,%ds
    10aa:	8e c0                	mov    %eax,%es
    10ac:	8e e0                	mov    %eax,%fs
    10ae:	8e e8                	mov    %eax,%gs
    10b0:	e9 fc ff ff ff       	jmp    10b1 <interrupt_101+0x17>
    10b5:	58                   	pop    %eax
    10b6:	8e d8                	mov    %eax,%ds
    10b8:	8e c0                	mov    %eax,%es
    10ba:	8e e0                	mov    %eax,%fs
    10bc:	8e e8                	mov    %eax,%gs
    10be:	61                   	popa   
    10bf:	83 c4 08             	add    $0x8,%esp
    10c2:	fb                   	sti    
    10c3:	cf                   	iret   

000010c4 <interrupt_102>:
    10c4:	fa                   	cli    
    10c5:	6a 00                	push   $0x0
    10c7:	6a 66                	push   $0x66
    10c9:	60                   	pusha  
    10ca:	66 8c d8             	mov    %ds,%ax
    10cd:	50                   	push   %eax
    10ce:	66 b8 10 00          	mov    $0x10,%ax
    10d2:	8e d8                	mov    %eax,%ds
    10d4:	8e c0                	mov    %eax,%es
    10d6:	8e e0                	mov    %eax,%fs
    10d8:	8e e8                	mov    %eax,%gs
    10da:	e9 fc ff ff ff       	jmp    10db <interrupt_102+0x17>
    10df:	58                   	pop    %eax
    10e0:	8e d8                	mov    %eax,%ds
    10e2:	8e c0                	mov    %eax,%es
    10e4:	8e e0                	mov    %eax,%fs
    10e6:	8e e8                	mov    %eax,%gs
    10e8:	61                   	popa   
    10e9:	83 c4 08             	add    $0x8,%esp
    10ec:	fb                   	sti    
    10ed:	cf                   	iret   

000010ee <interrupt_103>:
    10ee:	fa                   	cli    
    10ef:	6a 00                	push   $0x0
    10f1:	6a 67                	push   $0x67
    10f3:	60                   	pusha  
    10f4:	66 8c d8             	mov    %ds,%ax
    10f7:	50                   	push   %eax
    10f8:	66 b8 10 00          	mov    $0x10,%ax
    10fc:	8e d8                	mov    %eax,%ds
    10fe:	8e c0                	mov    %eax,%es
    1100:	8e e0                	mov    %eax,%fs
    1102:	8e e8                	mov    %eax,%gs
    1104:	e9 fc ff ff ff       	jmp    1105 <interrupt_103+0x17>
    1109:	58                   	pop    %eax
    110a:	8e d8                	mov    %eax,%ds
    110c:	8e c0                	mov    %eax,%es
    110e:	8e e0                	mov    %eax,%fs
    1110:	8e e8                	mov    %eax,%gs
    1112:	61                   	popa   
    1113:	83 c4 08             	add    $0x8,%esp
    1116:	fb                   	sti    
    1117:	cf                   	iret   

00001118 <interrupt_104>:
    1118:	fa                   	cli    
    1119:	6a 00                	push   $0x0
    111b:	6a 68                	push   $0x68
    111d:	60                   	pusha  
    111e:	66 8c d8             	mov    %ds,%ax
    1121:	50                   	push   %eax
    1122:	66 b8 10 00          	mov    $0x10,%ax
    1126:	8e d8                	mov    %eax,%ds
    1128:	8e c0                	mov    %eax,%es
    112a:	8e e0                	mov    %eax,%fs
    112c:	8e e8                	mov    %eax,%gs
    112e:	e9 fc ff ff ff       	jmp    112f <interrupt_104+0x17>
    1133:	58                   	pop    %eax
    1134:	8e d8                	mov    %eax,%ds
    1136:	8e c0                	mov    %eax,%es
    1138:	8e e0                	mov    %eax,%fs
    113a:	8e e8                	mov    %eax,%gs
    113c:	61                   	popa   
    113d:	83 c4 08             	add    $0x8,%esp
    1140:	fb                   	sti    
    1141:	cf                   	iret   

00001142 <interrupt_105>:
    1142:	fa                   	cli    
    1143:	6a 00                	push   $0x0
    1145:	6a 69                	push   $0x69
    1147:	60                   	pusha  
    1148:	66 8c d8             	mov    %ds,%ax
    114b:	50                   	push   %eax
    114c:	66 b8 10 00          	mov    $0x10,%ax
    1150:	8e d8                	mov    %eax,%ds
    1152:	8e c0                	mov    %eax,%es
    1154:	8e e0                	mov    %eax,%fs
    1156:	8e e8                	mov    %eax,%gs
    1158:	e9 fc ff ff ff       	jmp    1159 <interrupt_105+0x17>
    115d:	58                   	pop    %eax
    115e:	8e d8                	mov    %eax,%ds
    1160:	8e c0                	mov    %eax,%es
    1162:	8e e0                	mov    %eax,%fs
    1164:	8e e8                	mov    %eax,%gs
    1166:	61                   	popa   
    1167:	83 c4 08             	add    $0x8,%esp
    116a:	fb                   	sti    
    116b:	cf                   	iret   

0000116c <interrupt_106>:
    116c:	fa                   	cli    
    116d:	6a 00                	push   $0x0
    116f:	6a 6a                	push   $0x6a
    1171:	60                   	pusha  
    1172:	66 8c d8             	mov    %ds,%ax
    1175:	50                   	push   %eax
    1176:	66 b8 10 00          	mov    $0x10,%ax
    117a:	8e d8                	mov    %eax,%ds
    117c:	8e c0                	mov    %eax,%es
    117e:	8e e0                	mov    %eax,%fs
    1180:	8e e8                	mov    %eax,%gs
    1182:	e9 fc ff ff ff       	jmp    1183 <interrupt_106+0x17>
    1187:	58                   	pop    %eax
    1188:	8e d8                	mov    %eax,%ds
    118a:	8e c0                	mov    %eax,%es
    118c:	8e e0                	mov    %eax,%fs
    118e:	8e e8                	mov    %eax,%gs
    1190:	61                   	popa   
    1191:	83 c4 08             	add    $0x8,%esp
    1194:	fb                   	sti    
    1195:	cf                   	iret   

00001196 <interrupt_107>:
    1196:	fa                   	cli    
    1197:	6a 00                	push   $0x0
    1199:	6a 6b                	push   $0x6b
    119b:	60                   	pusha  
    119c:	66 8c d8             	mov    %ds,%ax
    119f:	50                   	push   %eax
    11a0:	66 b8 10 00          	mov    $0x10,%ax
    11a4:	8e d8                	mov    %eax,%ds
    11a6:	8e c0                	mov    %eax,%es
    11a8:	8e e0                	mov    %eax,%fs
    11aa:	8e e8                	mov    %eax,%gs
    11ac:	e9 fc ff ff ff       	jmp    11ad <interrupt_107+0x17>
    11b1:	58                   	pop    %eax
    11b2:	8e d8                	mov    %eax,%ds
    11b4:	8e c0                	mov    %eax,%es
    11b6:	8e e0                	mov    %eax,%fs
    11b8:	8e e8                	mov    %eax,%gs
    11ba:	61                   	popa   
    11bb:	83 c4 08             	add    $0x8,%esp
    11be:	fb                   	sti    
    11bf:	cf                   	iret   

000011c0 <interrupt_108>:
    11c0:	fa                   	cli    
    11c1:	6a 00                	push   $0x0
    11c3:	6a 6c                	push   $0x6c
    11c5:	60                   	pusha  
    11c6:	66 8c d8             	mov    %ds,%ax
    11c9:	50                   	push   %eax
    11ca:	66 b8 10 00          	mov    $0x10,%ax
    11ce:	8e d8                	mov    %eax,%ds
    11d0:	8e c0                	mov    %eax,%es
    11d2:	8e e0                	mov    %eax,%fs
    11d4:	8e e8                	mov    %eax,%gs
    11d6:	e9 fc ff ff ff       	jmp    11d7 <interrupt_108+0x17>
    11db:	58                   	pop    %eax
    11dc:	8e d8                	mov    %eax,%ds
    11de:	8e c0                	mov    %eax,%es
    11e0:	8e e0                	mov    %eax,%fs
    11e2:	8e e8                	mov    %eax,%gs
    11e4:	61                   	popa   
    11e5:	83 c4 08             	add    $0x8,%esp
    11e8:	fb                   	sti    
    11e9:	cf                   	iret   

000011ea <interrupt_109>:
    11ea:	fa                   	cli    
    11eb:	6a 00                	push   $0x0
    11ed:	6a 6d                	push   $0x6d
    11ef:	60                   	pusha  
    11f0:	66 8c d8             	mov    %ds,%ax
    11f3:	50                   	push   %eax
    11f4:	66 b8 10 00          	mov    $0x10,%ax
    11f8:	8e d8                	mov    %eax,%ds
    11fa:	8e c0                	mov    %eax,%es
    11fc:	8e e0                	mov    %eax,%fs
    11fe:	8e e8                	mov    %eax,%gs
    1200:	e9 fc ff ff ff       	jmp    1201 <interrupt_109+0x17>
    1205:	58                   	pop    %eax
    1206:	8e d8                	mov    %eax,%ds
    1208:	8e c0                	mov    %eax,%es
    120a:	8e e0                	mov    %eax,%fs
    120c:	8e e8                	mov    %eax,%gs
    120e:	61                   	popa   
    120f:	83 c4 08             	add    $0x8,%esp
    1212:	fb                   	sti    
    1213:	cf                   	iret   

00001214 <interrupt_110>:
    1214:	fa                   	cli    
    1215:	6a 00                	push   $0x0
    1217:	6a 6e                	push   $0x6e
    1219:	60                   	pusha  
    121a:	66 8c d8             	mov    %ds,%ax
    121d:	50                   	push   %eax
    121e:	66 b8 10 00          	mov    $0x10,%ax
    1222:	8e d8                	mov    %eax,%ds
    1224:	8e c0                	mov    %eax,%es
    1226:	8e e0                	mov    %eax,%fs
    1228:	8e e8                	mov    %eax,%gs
    122a:	e9 fc ff ff ff       	jmp    122b <interrupt_110+0x17>
    122f:	58                   	pop    %eax
    1230:	8e d8                	mov    %eax,%ds
    1232:	8e c0                	mov    %eax,%es
    1234:	8e e0                	mov    %eax,%fs
    1236:	8e e8                	mov    %eax,%gs
    1238:	61                   	popa   
    1239:	83 c4 08             	add    $0x8,%esp
    123c:	fb                   	sti    
    123d:	cf                   	iret   

0000123e <interrupt_111>:
    123e:	fa                   	cli    
    123f:	6a 00                	push   $0x0
    1241:	6a 6f                	push   $0x6f
    1243:	60                   	pusha  
    1244:	66 8c d8             	mov    %ds,%ax
    1247:	50                   	push   %eax
    1248:	66 b8 10 00          	mov    $0x10,%ax
    124c:	8e d8                	mov    %eax,%ds
    124e:	8e c0                	mov    %eax,%es
    1250:	8e e0                	mov    %eax,%fs
    1252:	8e e8                	mov    %eax,%gs
    1254:	e9 fc ff ff ff       	jmp    1255 <interrupt_111+0x17>
    1259:	58                   	pop    %eax
    125a:	8e d8                	mov    %eax,%ds
    125c:	8e c0                	mov    %eax,%es
    125e:	8e e0                	mov    %eax,%fs
    1260:	8e e8                	mov    %eax,%gs
    1262:	61                   	popa   
    1263:	83 c4 08             	add    $0x8,%esp
    1266:	fb                   	sti    
    1267:	cf                   	iret   

00001268 <interrupt_112>:
    1268:	fa                   	cli    
    1269:	6a 00                	push   $0x0
    126b:	6a 70                	push   $0x70
    126d:	60                   	pusha  
    126e:	66 8c d8             	mov    %ds,%ax
    1271:	50                   	push   %eax
    1272:	66 b8 10 00          	mov    $0x10,%ax
    1276:	8e d8                	mov    %eax,%ds
    1278:	8e c0                	mov    %eax,%es
    127a:	8e e0                	mov    %eax,%fs
    127c:	8e e8                	mov    %eax,%gs
    127e:	e9 fc ff ff ff       	jmp    127f <interrupt_112+0x17>
    1283:	58                   	pop    %eax
    1284:	8e d8                	mov    %eax,%ds
    1286:	8e c0                	mov    %eax,%es
    1288:	8e e0                	mov    %eax,%fs
    128a:	8e e8                	mov    %eax,%gs
    128c:	61                   	popa   
    128d:	83 c4 08             	add    $0x8,%esp
    1290:	fb                   	sti    
    1291:	cf                   	iret   

00001292 <interrupt_113>:
    1292:	fa                   	cli    
    1293:	6a 00                	push   $0x0
    1295:	6a 71                	push   $0x71
    1297:	60                   	pusha  
    1298:	66 8c d8             	mov    %ds,%ax
    129b:	50                   	push   %eax
    129c:	66 b8 10 00          	mov    $0x10,%ax
    12a0:	8e d8                	mov    %eax,%ds
    12a2:	8e c0                	mov    %eax,%es
    12a4:	8e e0                	mov    %eax,%fs
    12a6:	8e e8                	mov    %eax,%gs
    12a8:	e9 fc ff ff ff       	jmp    12a9 <interrupt_113+0x17>
    12ad:	58                   	pop    %eax
    12ae:	8e d8                	mov    %eax,%ds
    12b0:	8e c0                	mov    %eax,%es
    12b2:	8e e0                	mov    %eax,%fs
    12b4:	8e e8                	mov    %eax,%gs
    12b6:	61                   	popa   
    12b7:	83 c4 08             	add    $0x8,%esp
    12ba:	fb                   	sti    
    12bb:	cf                   	iret   

000012bc <interrupt_114>:
    12bc:	fa                   	cli    
    12bd:	6a 00                	push   $0x0
    12bf:	6a 72                	push   $0x72
    12c1:	60                   	pusha  
    12c2:	66 8c d8             	mov    %ds,%ax
    12c5:	50                   	push   %eax
    12c6:	66 b8 10 00          	mov    $0x10,%ax
    12ca:	8e d8                	mov    %eax,%ds
    12cc:	8e c0                	mov    %eax,%es
    12ce:	8e e0                	mov    %eax,%fs
    12d0:	8e e8                	mov    %eax,%gs
    12d2:	e9 fc ff ff ff       	jmp    12d3 <interrupt_114+0x17>
    12d7:	58                   	pop    %eax
    12d8:	8e d8                	mov    %eax,%ds
    12da:	8e c0                	mov    %eax,%es
    12dc:	8e e0                	mov    %eax,%fs
    12de:	8e e8                	mov    %eax,%gs
    12e0:	61                   	popa   
    12e1:	83 c4 08             	add    $0x8,%esp
    12e4:	fb                   	sti    
    12e5:	cf                   	iret   

000012e6 <interrupt_115>:
    12e6:	fa                   	cli    
    12e7:	6a 00                	push   $0x0
    12e9:	6a 73                	push   $0x73
    12eb:	60                   	pusha  
    12ec:	66 8c d8             	mov    %ds,%ax
    12ef:	50                   	push   %eax
    12f0:	66 b8 10 00          	mov    $0x10,%ax
    12f4:	8e d8                	mov    %eax,%ds
    12f6:	8e c0                	mov    %eax,%es
    12f8:	8e e0                	mov    %eax,%fs
    12fa:	8e e8                	mov    %eax,%gs
    12fc:	e9 fc ff ff ff       	jmp    12fd <interrupt_115+0x17>
    1301:	58                   	pop    %eax
    1302:	8e d8                	mov    %eax,%ds
    1304:	8e c0                	mov    %eax,%es
    1306:	8e e0                	mov    %eax,%fs
    1308:	8e e8                	mov    %eax,%gs
    130a:	61                   	popa   
    130b:	83 c4 08             	add    $0x8,%esp
    130e:	fb                   	sti    
    130f:	cf                   	iret   

00001310 <interrupt_116>:
    1310:	fa                   	cli    
    1311:	6a 00                	push   $0x0
    1313:	6a 74                	push   $0x74
    1315:	60                   	pusha  
    1316:	66 8c d8             	mov    %ds,%ax
    1319:	50                   	push   %eax
    131a:	66 b8 10 00          	mov    $0x10,%ax
    131e:	8e d8                	mov    %eax,%ds
    1320:	8e c0                	mov    %eax,%es
    1322:	8e e0                	mov    %eax,%fs
    1324:	8e e8                	mov    %eax,%gs
    1326:	e9 fc ff ff ff       	jmp    1327 <interrupt_116+0x17>
    132b:	58                   	pop    %eax
    132c:	8e d8                	mov    %eax,%ds
    132e:	8e c0                	mov    %eax,%es
    1330:	8e e0                	mov    %eax,%fs
    1332:	8e e8                	mov    %eax,%gs
    1334:	61                   	popa   
    1335:	83 c4 08             	add    $0x8,%esp
    1338:	fb                   	sti    
    1339:	cf                   	iret   

0000133a <interrupt_117>:
    133a:	fa                   	cli    
    133b:	6a 00                	push   $0x0
    133d:	6a 75                	push   $0x75
    133f:	60                   	pusha  
    1340:	66 8c d8             	mov    %ds,%ax
    1343:	50                   	push   %eax
    1344:	66 b8 10 00          	mov    $0x10,%ax
    1348:	8e d8                	mov    %eax,%ds
    134a:	8e c0                	mov    %eax,%es
    134c:	8e e0                	mov    %eax,%fs
    134e:	8e e8                	mov    %eax,%gs
    1350:	e9 fc ff ff ff       	jmp    1351 <interrupt_117+0x17>
    1355:	58                   	pop    %eax
    1356:	8e d8                	mov    %eax,%ds
    1358:	8e c0                	mov    %eax,%es
    135a:	8e e0                	mov    %eax,%fs
    135c:	8e e8                	mov    %eax,%gs
    135e:	61                   	popa   
    135f:	83 c4 08             	add    $0x8,%esp
    1362:	fb                   	sti    
    1363:	cf                   	iret   

00001364 <interrupt_118>:
    1364:	fa                   	cli    
    1365:	6a 00                	push   $0x0
    1367:	6a 76                	push   $0x76
    1369:	60                   	pusha  
    136a:	66 8c d8             	mov    %ds,%ax
    136d:	50                   	push   %eax
    136e:	66 b8 10 00          	mov    $0x10,%ax
    1372:	8e d8                	mov    %eax,%ds
    1374:	8e c0                	mov    %eax,%es
    1376:	8e e0                	mov    %eax,%fs
    1378:	8e e8                	mov    %eax,%gs
    137a:	e9 fc ff ff ff       	jmp    137b <interrupt_118+0x17>
    137f:	58                   	pop    %eax
    1380:	8e d8                	mov    %eax,%ds
    1382:	8e c0                	mov    %eax,%es
    1384:	8e e0                	mov    %eax,%fs
    1386:	8e e8                	mov    %eax,%gs
    1388:	61                   	popa   
    1389:	83 c4 08             	add    $0x8,%esp
    138c:	fb                   	sti    
    138d:	cf                   	iret   

0000138e <interrupt_119>:
    138e:	fa                   	cli    
    138f:	6a 00                	push   $0x0
    1391:	6a 77                	push   $0x77
    1393:	60                   	pusha  
    1394:	66 8c d8             	mov    %ds,%ax
    1397:	50                   	push   %eax
    1398:	66 b8 10 00          	mov    $0x10,%ax
    139c:	8e d8                	mov    %eax,%ds
    139e:	8e c0                	mov    %eax,%es
    13a0:	8e e0                	mov    %eax,%fs
    13a2:	8e e8                	mov    %eax,%gs
    13a4:	e9 fc ff ff ff       	jmp    13a5 <interrupt_119+0x17>
    13a9:	58                   	pop    %eax
    13aa:	8e d8                	mov    %eax,%ds
    13ac:	8e c0                	mov    %eax,%es
    13ae:	8e e0                	mov    %eax,%fs
    13b0:	8e e8                	mov    %eax,%gs
    13b2:	61                   	popa   
    13b3:	83 c4 08             	add    $0x8,%esp
    13b6:	fb                   	sti    
    13b7:	cf                   	iret   

000013b8 <interrupt_120>:
    13b8:	fa                   	cli    
    13b9:	6a 00                	push   $0x0
    13bb:	6a 78                	push   $0x78
    13bd:	60                   	pusha  
    13be:	66 8c d8             	mov    %ds,%ax
    13c1:	50                   	push   %eax
    13c2:	66 b8 10 00          	mov    $0x10,%ax
    13c6:	8e d8                	mov    %eax,%ds
    13c8:	8e c0                	mov    %eax,%es
    13ca:	8e e0                	mov    %eax,%fs
    13cc:	8e e8                	mov    %eax,%gs
    13ce:	e9 fc ff ff ff       	jmp    13cf <interrupt_120+0x17>
    13d3:	58                   	pop    %eax
    13d4:	8e d8                	mov    %eax,%ds
    13d6:	8e c0                	mov    %eax,%es
    13d8:	8e e0                	mov    %eax,%fs
    13da:	8e e8                	mov    %eax,%gs
    13dc:	61                   	popa   
    13dd:	83 c4 08             	add    $0x8,%esp
    13e0:	fb                   	sti    
    13e1:	cf                   	iret   

000013e2 <interrupt_121>:
    13e2:	fa                   	cli    
    13e3:	6a 00                	push   $0x0
    13e5:	6a 79                	push   $0x79
    13e7:	60                   	pusha  
    13e8:	66 8c d8             	mov    %ds,%ax
    13eb:	50                   	push   %eax
    13ec:	66 b8 10 00          	mov    $0x10,%ax
    13f0:	8e d8                	mov    %eax,%ds
    13f2:	8e c0                	mov    %eax,%es
    13f4:	8e e0                	mov    %eax,%fs
    13f6:	8e e8                	mov    %eax,%gs
    13f8:	e9 fc ff ff ff       	jmp    13f9 <interrupt_121+0x17>
    13fd:	58                   	pop    %eax
    13fe:	8e d8                	mov    %eax,%ds
    1400:	8e c0                	mov    %eax,%es
    1402:	8e e0                	mov    %eax,%fs
    1404:	8e e8                	mov    %eax,%gs
    1406:	61                   	popa   
    1407:	83 c4 08             	add    $0x8,%esp
    140a:	fb                   	sti    
    140b:	cf                   	iret   

0000140c <interrupt_122>:
    140c:	fa                   	cli    
    140d:	6a 00                	push   $0x0
    140f:	6a 7a                	push   $0x7a
    1411:	60                   	pusha  
    1412:	66 8c d8             	mov    %ds,%ax
    1415:	50                   	push   %eax
    1416:	66 b8 10 00          	mov    $0x10,%ax
    141a:	8e d8                	mov    %eax,%ds
    141c:	8e c0                	mov    %eax,%es
    141e:	8e e0                	mov    %eax,%fs
    1420:	8e e8                	mov    %eax,%gs
    1422:	e9 fc ff ff ff       	jmp    1423 <interrupt_122+0x17>
    1427:	58                   	pop    %eax
    1428:	8e d8                	mov    %eax,%ds
    142a:	8e c0                	mov    %eax,%es
    142c:	8e e0                	mov    %eax,%fs
    142e:	8e e8                	mov    %eax,%gs
    1430:	61                   	popa   
    1431:	83 c4 08             	add    $0x8,%esp
    1434:	fb                   	sti    
    1435:	cf                   	iret   

00001436 <interrupt_123>:
    1436:	fa                   	cli    
    1437:	6a 00                	push   $0x0
    1439:	6a 7b                	push   $0x7b
    143b:	60                   	pusha  
    143c:	66 8c d8             	mov    %ds,%ax
    143f:	50                   	push   %eax
    1440:	66 b8 10 00          	mov    $0x10,%ax
    1444:	8e d8                	mov    %eax,%ds
    1446:	8e c0                	mov    %eax,%es
    1448:	8e e0                	mov    %eax,%fs
    144a:	8e e8                	mov    %eax,%gs
    144c:	e9 fc ff ff ff       	jmp    144d <interrupt_123+0x17>
    1451:	58                   	pop    %eax
    1452:	8e d8                	mov    %eax,%ds
    1454:	8e c0                	mov    %eax,%es
    1456:	8e e0                	mov    %eax,%fs
    1458:	8e e8                	mov    %eax,%gs
    145a:	61                   	popa   
    145b:	83 c4 08             	add    $0x8,%esp
    145e:	fb                   	sti    
    145f:	cf                   	iret   

00001460 <interrupt_124>:
    1460:	fa                   	cli    
    1461:	6a 00                	push   $0x0
    1463:	6a 7c                	push   $0x7c
    1465:	60                   	pusha  
    1466:	66 8c d8             	mov    %ds,%ax
    1469:	50                   	push   %eax
    146a:	66 b8 10 00          	mov    $0x10,%ax
    146e:	8e d8                	mov    %eax,%ds
    1470:	8e c0                	mov    %eax,%es
    1472:	8e e0                	mov    %eax,%fs
    1474:	8e e8                	mov    %eax,%gs
    1476:	e9 fc ff ff ff       	jmp    1477 <interrupt_124+0x17>
    147b:	58                   	pop    %eax
    147c:	8e d8                	mov    %eax,%ds
    147e:	8e c0                	mov    %eax,%es
    1480:	8e e0                	mov    %eax,%fs
    1482:	8e e8                	mov    %eax,%gs
    1484:	61                   	popa   
    1485:	83 c4 08             	add    $0x8,%esp
    1488:	fb                   	sti    
    1489:	cf                   	iret   

0000148a <interrupt_125>:
    148a:	fa                   	cli    
    148b:	6a 00                	push   $0x0
    148d:	6a 7d                	push   $0x7d
    148f:	60                   	pusha  
    1490:	66 8c d8             	mov    %ds,%ax
    1493:	50                   	push   %eax
    1494:	66 b8 10 00          	mov    $0x10,%ax
    1498:	8e d8                	mov    %eax,%ds
    149a:	8e c0                	mov    %eax,%es
    149c:	8e e0                	mov    %eax,%fs
    149e:	8e e8                	mov    %eax,%gs
    14a0:	e9 fc ff ff ff       	jmp    14a1 <interrupt_125+0x17>
    14a5:	58                   	pop    %eax
    14a6:	8e d8                	mov    %eax,%ds
    14a8:	8e c0                	mov    %eax,%es
    14aa:	8e e0                	mov    %eax,%fs
    14ac:	8e e8                	mov    %eax,%gs
    14ae:	61                   	popa   
    14af:	83 c4 08             	add    $0x8,%esp
    14b2:	fb                   	sti    
    14b3:	cf                   	iret   

000014b4 <interrupt_126>:
    14b4:	fa                   	cli    
    14b5:	6a 00                	push   $0x0
    14b7:	6a 7e                	push   $0x7e
    14b9:	60                   	pusha  
    14ba:	66 8c d8             	mov    %ds,%ax
    14bd:	50                   	push   %eax
    14be:	66 b8 10 00          	mov    $0x10,%ax
    14c2:	8e d8                	mov    %eax,%ds
    14c4:	8e c0                	mov    %eax,%es
    14c6:	8e e0                	mov    %eax,%fs
    14c8:	8e e8                	mov    %eax,%gs
    14ca:	e9 fc ff ff ff       	jmp    14cb <interrupt_126+0x17>
    14cf:	58                   	pop    %eax
    14d0:	8e d8                	mov    %eax,%ds
    14d2:	8e c0                	mov    %eax,%es
    14d4:	8e e0                	mov    %eax,%fs
    14d6:	8e e8                	mov    %eax,%gs
    14d8:	61                   	popa   
    14d9:	83 c4 08             	add    $0x8,%esp
    14dc:	fb                   	sti    
    14dd:	cf                   	iret   

000014de <interrupt_127>:
    14de:	fa                   	cli    
    14df:	6a 00                	push   $0x0
    14e1:	6a 7f                	push   $0x7f
    14e3:	60                   	pusha  
    14e4:	66 8c d8             	mov    %ds,%ax
    14e7:	50                   	push   %eax
    14e8:	66 b8 10 00          	mov    $0x10,%ax
    14ec:	8e d8                	mov    %eax,%ds
    14ee:	8e c0                	mov    %eax,%es
    14f0:	8e e0                	mov    %eax,%fs
    14f2:	8e e8                	mov    %eax,%gs
    14f4:	e9 fc ff ff ff       	jmp    14f5 <interrupt_127+0x17>
    14f9:	58                   	pop    %eax
    14fa:	8e d8                	mov    %eax,%ds
    14fc:	8e c0                	mov    %eax,%es
    14fe:	8e e0                	mov    %eax,%fs
    1500:	8e e8                	mov    %eax,%gs
    1502:	61                   	popa   
    1503:	83 c4 08             	add    $0x8,%esp
    1506:	fb                   	sti    
    1507:	cf                   	iret   

00001508 <interrupt_128>:
    1508:	fa                   	cli    
    1509:	6a 00                	push   $0x0
    150b:	68 80 00 00 00       	push   $0x80
    1510:	60                   	pusha  
    1511:	66 8c d8             	mov    %ds,%ax
    1514:	50                   	push   %eax
    1515:	66 b8 10 00          	mov    $0x10,%ax
    1519:	8e d8                	mov    %eax,%ds
    151b:	8e c0                	mov    %eax,%es
    151d:	8e e0                	mov    %eax,%fs
    151f:	8e e8                	mov    %eax,%gs
    1521:	e9 fc ff ff ff       	jmp    1522 <interrupt_128+0x1a>
    1526:	58                   	pop    %eax
    1527:	8e d8                	mov    %eax,%ds
    1529:	8e c0                	mov    %eax,%es
    152b:	8e e0                	mov    %eax,%fs
    152d:	8e e8                	mov    %eax,%gs
    152f:	61                   	popa   
    1530:	83 c4 08             	add    $0x8,%esp
    1533:	fb                   	sti    
    1534:	cf                   	iret   

00001535 <interrupt_129>:
    1535:	fa                   	cli    
    1536:	6a 00                	push   $0x0
    1538:	68 81 00 00 00       	push   $0x81
    153d:	60                   	pusha  
    153e:	66 8c d8             	mov    %ds,%ax
    1541:	50                   	push   %eax
    1542:	66 b8 10 00          	mov    $0x10,%ax
    1546:	8e d8                	mov    %eax,%ds
    1548:	8e c0                	mov    %eax,%es
    154a:	8e e0                	mov    %eax,%fs
    154c:	8e e8                	mov    %eax,%gs
    154e:	e9 fc ff ff ff       	jmp    154f <interrupt_129+0x1a>
    1553:	58                   	pop    %eax
    1554:	8e d8                	mov    %eax,%ds
    1556:	8e c0                	mov    %eax,%es
    1558:	8e e0                	mov    %eax,%fs
    155a:	8e e8                	mov    %eax,%gs
    155c:	61                   	popa   
    155d:	83 c4 08             	add    $0x8,%esp
    1560:	fb                   	sti    
    1561:	cf                   	iret   

00001562 <interrupt_130>:
    1562:	fa                   	cli    
    1563:	6a 00                	push   $0x0
    1565:	68 82 00 00 00       	push   $0x82
    156a:	60                   	pusha  
    156b:	66 8c d8             	mov    %ds,%ax
    156e:	50                   	push   %eax
    156f:	66 b8 10 00          	mov    $0x10,%ax
    1573:	8e d8                	mov    %eax,%ds
    1575:	8e c0                	mov    %eax,%es
    1577:	8e e0                	mov    %eax,%fs
    1579:	8e e8                	mov    %eax,%gs
    157b:	e9 fc ff ff ff       	jmp    157c <interrupt_130+0x1a>
    1580:	58                   	pop    %eax
    1581:	8e d8                	mov    %eax,%ds
    1583:	8e c0                	mov    %eax,%es
    1585:	8e e0                	mov    %eax,%fs
    1587:	8e e8                	mov    %eax,%gs
    1589:	61                   	popa   
    158a:	83 c4 08             	add    $0x8,%esp
    158d:	fb                   	sti    
    158e:	cf                   	iret   

0000158f <interrupt_131>:
    158f:	fa                   	cli    
    1590:	6a 00                	push   $0x0
    1592:	68 83 00 00 00       	push   $0x83
    1597:	60                   	pusha  
    1598:	66 8c d8             	mov    %ds,%ax
    159b:	50                   	push   %eax
    159c:	66 b8 10 00          	mov    $0x10,%ax
    15a0:	8e d8                	mov    %eax,%ds
    15a2:	8e c0                	mov    %eax,%es
    15a4:	8e e0                	mov    %eax,%fs
    15a6:	8e e8                	mov    %eax,%gs
    15a8:	e9 fc ff ff ff       	jmp    15a9 <interrupt_131+0x1a>
    15ad:	58                   	pop    %eax
    15ae:	8e d8                	mov    %eax,%ds
    15b0:	8e c0                	mov    %eax,%es
    15b2:	8e e0                	mov    %eax,%fs
    15b4:	8e e8                	mov    %eax,%gs
    15b6:	61                   	popa   
    15b7:	83 c4 08             	add    $0x8,%esp
    15ba:	fb                   	sti    
    15bb:	cf                   	iret   

000015bc <interrupt_132>:
    15bc:	fa                   	cli    
    15bd:	6a 00                	push   $0x0
    15bf:	68 84 00 00 00       	push   $0x84
    15c4:	60                   	pusha  
    15c5:	66 8c d8             	mov    %ds,%ax
    15c8:	50                   	push   %eax
    15c9:	66 b8 10 00          	mov    $0x10,%ax
    15cd:	8e d8                	mov    %eax,%ds
    15cf:	8e c0                	mov    %eax,%es
    15d1:	8e e0                	mov    %eax,%fs
    15d3:	8e e8                	mov    %eax,%gs
    15d5:	e9 fc ff ff ff       	jmp    15d6 <interrupt_132+0x1a>
    15da:	58                   	pop    %eax
    15db:	8e d8                	mov    %eax,%ds
    15dd:	8e c0                	mov    %eax,%es
    15df:	8e e0                	mov    %eax,%fs
    15e1:	8e e8                	mov    %eax,%gs
    15e3:	61                   	popa   
    15e4:	83 c4 08             	add    $0x8,%esp
    15e7:	fb                   	sti    
    15e8:	cf                   	iret   

000015e9 <interrupt_133>:
    15e9:	fa                   	cli    
    15ea:	6a 00                	push   $0x0
    15ec:	68 85 00 00 00       	push   $0x85
    15f1:	60                   	pusha  
    15f2:	66 8c d8             	mov    %ds,%ax
    15f5:	50                   	push   %eax
    15f6:	66 b8 10 00          	mov    $0x10,%ax
    15fa:	8e d8                	mov    %eax,%ds
    15fc:	8e c0                	mov    %eax,%es
    15fe:	8e e0                	mov    %eax,%fs
    1600:	8e e8                	mov    %eax,%gs
    1602:	e9 fc ff ff ff       	jmp    1603 <interrupt_133+0x1a>
    1607:	58                   	pop    %eax
    1608:	8e d8                	mov    %eax,%ds
    160a:	8e c0                	mov    %eax,%es
    160c:	8e e0                	mov    %eax,%fs
    160e:	8e e8                	mov    %eax,%gs
    1610:	61                   	popa   
    1611:	83 c4 08             	add    $0x8,%esp
    1614:	fb                   	sti    
    1615:	cf                   	iret   

00001616 <interrupt_134>:
    1616:	fa                   	cli    
    1617:	6a 00                	push   $0x0
    1619:	68 86 00 00 00       	push   $0x86
    161e:	60                   	pusha  
    161f:	66 8c d8             	mov    %ds,%ax
    1622:	50                   	push   %eax
    1623:	66 b8 10 00          	mov    $0x10,%ax
    1627:	8e d8                	mov    %eax,%ds
    1629:	8e c0                	mov    %eax,%es
    162b:	8e e0                	mov    %eax,%fs
    162d:	8e e8                	mov    %eax,%gs
    162f:	e9 fc ff ff ff       	jmp    1630 <interrupt_134+0x1a>
    1634:	58                   	pop    %eax
    1635:	8e d8                	mov    %eax,%ds
    1637:	8e c0                	mov    %eax,%es
    1639:	8e e0                	mov    %eax,%fs
    163b:	8e e8                	mov    %eax,%gs
    163d:	61                   	popa   
    163e:	83 c4 08             	add    $0x8,%esp
    1641:	fb                   	sti    
    1642:	cf                   	iret   

00001643 <interrupt_135>:
    1643:	fa                   	cli    
    1644:	6a 00                	push   $0x0
    1646:	68 87 00 00 00       	push   $0x87
    164b:	60                   	pusha  
    164c:	66 8c d8             	mov    %ds,%ax
    164f:	50                   	push   %eax
    1650:	66 b8 10 00          	mov    $0x10,%ax
    1654:	8e d8                	mov    %eax,%ds
    1656:	8e c0                	mov    %eax,%es
    1658:	8e e0                	mov    %eax,%fs
    165a:	8e e8                	mov    %eax,%gs
    165c:	e9 fc ff ff ff       	jmp    165d <interrupt_135+0x1a>
    1661:	58                   	pop    %eax
    1662:	8e d8                	mov    %eax,%ds
    1664:	8e c0                	mov    %eax,%es
    1666:	8e e0                	mov    %eax,%fs
    1668:	8e e8                	mov    %eax,%gs
    166a:	61                   	popa   
    166b:	83 c4 08             	add    $0x8,%esp
    166e:	fb                   	sti    
    166f:	cf                   	iret   

00001670 <interrupt_136>:
    1670:	fa                   	cli    
    1671:	6a 00                	push   $0x0
    1673:	68 88 00 00 00       	push   $0x88
    1678:	60                   	pusha  
    1679:	66 8c d8             	mov    %ds,%ax
    167c:	50                   	push   %eax
    167d:	66 b8 10 00          	mov    $0x10,%ax
    1681:	8e d8                	mov    %eax,%ds
    1683:	8e c0                	mov    %eax,%es
    1685:	8e e0                	mov    %eax,%fs
    1687:	8e e8                	mov    %eax,%gs
    1689:	e9 fc ff ff ff       	jmp    168a <interrupt_136+0x1a>
    168e:	58                   	pop    %eax
    168f:	8e d8                	mov    %eax,%ds
    1691:	8e c0                	mov    %eax,%es
    1693:	8e e0                	mov    %eax,%fs
    1695:	8e e8                	mov    %eax,%gs
    1697:	61                   	popa   
    1698:	83 c4 08             	add    $0x8,%esp
    169b:	fb                   	sti    
    169c:	cf                   	iret   

0000169d <interrupt_137>:
    169d:	fa                   	cli    
    169e:	6a 00                	push   $0x0
    16a0:	68 89 00 00 00       	push   $0x89
    16a5:	60                   	pusha  
    16a6:	66 8c d8             	mov    %ds,%ax
    16a9:	50                   	push   %eax
    16aa:	66 b8 10 00          	mov    $0x10,%ax
    16ae:	8e d8                	mov    %eax,%ds
    16b0:	8e c0                	mov    %eax,%es
    16b2:	8e e0                	mov    %eax,%fs
    16b4:	8e e8                	mov    %eax,%gs
    16b6:	e9 fc ff ff ff       	jmp    16b7 <interrupt_137+0x1a>
    16bb:	58                   	pop    %eax
    16bc:	8e d8                	mov    %eax,%ds
    16be:	8e c0                	mov    %eax,%es
    16c0:	8e e0                	mov    %eax,%fs
    16c2:	8e e8                	mov    %eax,%gs
    16c4:	61                   	popa   
    16c5:	83 c4 08             	add    $0x8,%esp
    16c8:	fb                   	sti    
    16c9:	cf                   	iret   

000016ca <interrupt_138>:
    16ca:	fa                   	cli    
    16cb:	6a 00                	push   $0x0
    16cd:	68 8a 00 00 00       	push   $0x8a
    16d2:	60                   	pusha  
    16d3:	66 8c d8             	mov    %ds,%ax
    16d6:	50                   	push   %eax
    16d7:	66 b8 10 00          	mov    $0x10,%ax
    16db:	8e d8                	mov    %eax,%ds
    16dd:	8e c0                	mov    %eax,%es
    16df:	8e e0                	mov    %eax,%fs
    16e1:	8e e8                	mov    %eax,%gs
    16e3:	e9 fc ff ff ff       	jmp    16e4 <interrupt_138+0x1a>
    16e8:	58                   	pop    %eax
    16e9:	8e d8                	mov    %eax,%ds
    16eb:	8e c0                	mov    %eax,%es
    16ed:	8e e0                	mov    %eax,%fs
    16ef:	8e e8                	mov    %eax,%gs
    16f1:	61                   	popa   
    16f2:	83 c4 08             	add    $0x8,%esp
    16f5:	fb                   	sti    
    16f6:	cf                   	iret   

000016f7 <interrupt_139>:
    16f7:	fa                   	cli    
    16f8:	6a 00                	push   $0x0
    16fa:	68 8b 00 00 00       	push   $0x8b
    16ff:	60                   	pusha  
    1700:	66 8c d8             	mov    %ds,%ax
    1703:	50                   	push   %eax
    1704:	66 b8 10 00          	mov    $0x10,%ax
    1708:	8e d8                	mov    %eax,%ds
    170a:	8e c0                	mov    %eax,%es
    170c:	8e e0                	mov    %eax,%fs
    170e:	8e e8                	mov    %eax,%gs
    1710:	e9 fc ff ff ff       	jmp    1711 <interrupt_139+0x1a>
    1715:	58                   	pop    %eax
    1716:	8e d8                	mov    %eax,%ds
    1718:	8e c0                	mov    %eax,%es
    171a:	8e e0                	mov    %eax,%fs
    171c:	8e e8                	mov    %eax,%gs
    171e:	61                   	popa   
    171f:	83 c4 08             	add    $0x8,%esp
    1722:	fb                   	sti    
    1723:	cf                   	iret   

00001724 <interrupt_140>:
    1724:	fa                   	cli    
    1725:	6a 00                	push   $0x0
    1727:	68 8c 00 00 00       	push   $0x8c
    172c:	60                   	pusha  
    172d:	66 8c d8             	mov    %ds,%ax
    1730:	50                   	push   %eax
    1731:	66 b8 10 00          	mov    $0x10,%ax
    1735:	8e d8                	mov    %eax,%ds
    1737:	8e c0                	mov    %eax,%es
    1739:	8e e0                	mov    %eax,%fs
    173b:	8e e8                	mov    %eax,%gs
    173d:	e9 fc ff ff ff       	jmp    173e <interrupt_140+0x1a>
    1742:	58                   	pop    %eax
    1743:	8e d8                	mov    %eax,%ds
    1745:	8e c0                	mov    %eax,%es
    1747:	8e e0                	mov    %eax,%fs
    1749:	8e e8                	mov    %eax,%gs
    174b:	61                   	popa   
    174c:	83 c4 08             	add    $0x8,%esp
    174f:	fb                   	sti    
    1750:	cf                   	iret   

00001751 <interrupt_141>:
    1751:	fa                   	cli    
    1752:	6a 00                	push   $0x0
    1754:	68 8d 00 00 00       	push   $0x8d
    1759:	60                   	pusha  
    175a:	66 8c d8             	mov    %ds,%ax
    175d:	50                   	push   %eax
    175e:	66 b8 10 00          	mov    $0x10,%ax
    1762:	8e d8                	mov    %eax,%ds
    1764:	8e c0                	mov    %eax,%es
    1766:	8e e0                	mov    %eax,%fs
    1768:	8e e8                	mov    %eax,%gs
    176a:	e9 fc ff ff ff       	jmp    176b <interrupt_141+0x1a>
    176f:	58                   	pop    %eax
    1770:	8e d8                	mov    %eax,%ds
    1772:	8e c0                	mov    %eax,%es
    1774:	8e e0                	mov    %eax,%fs
    1776:	8e e8                	mov    %eax,%gs
    1778:	61                   	popa   
    1779:	83 c4 08             	add    $0x8,%esp
    177c:	fb                   	sti    
    177d:	cf                   	iret   

0000177e <interrupt_142>:
    177e:	fa                   	cli    
    177f:	6a 00                	push   $0x0
    1781:	68 8e 00 00 00       	push   $0x8e
    1786:	60                   	pusha  
    1787:	66 8c d8             	mov    %ds,%ax
    178a:	50                   	push   %eax
    178b:	66 b8 10 00          	mov    $0x10,%ax
    178f:	8e d8                	mov    %eax,%ds
    1791:	8e c0                	mov    %eax,%es
    1793:	8e e0                	mov    %eax,%fs
    1795:	8e e8                	mov    %eax,%gs
    1797:	e9 fc ff ff ff       	jmp    1798 <interrupt_142+0x1a>
    179c:	58                   	pop    %eax
    179d:	8e d8                	mov    %eax,%ds
    179f:	8e c0                	mov    %eax,%es
    17a1:	8e e0                	mov    %eax,%fs
    17a3:	8e e8                	mov    %eax,%gs
    17a5:	61                   	popa   
    17a6:	83 c4 08             	add    $0x8,%esp
    17a9:	fb                   	sti    
    17aa:	cf                   	iret   

000017ab <interrupt_143>:
    17ab:	fa                   	cli    
    17ac:	6a 00                	push   $0x0
    17ae:	68 8f 00 00 00       	push   $0x8f
    17b3:	60                   	pusha  
    17b4:	66 8c d8             	mov    %ds,%ax
    17b7:	50                   	push   %eax
    17b8:	66 b8 10 00          	mov    $0x10,%ax
    17bc:	8e d8                	mov    %eax,%ds
    17be:	8e c0                	mov    %eax,%es
    17c0:	8e e0                	mov    %eax,%fs
    17c2:	8e e8                	mov    %eax,%gs
    17c4:	e9 fc ff ff ff       	jmp    17c5 <interrupt_143+0x1a>
    17c9:	58                   	pop    %eax
    17ca:	8e d8                	mov    %eax,%ds
    17cc:	8e c0                	mov    %eax,%es
    17ce:	8e e0                	mov    %eax,%fs
    17d0:	8e e8                	mov    %eax,%gs
    17d2:	61                   	popa   
    17d3:	83 c4 08             	add    $0x8,%esp
    17d6:	fb                   	sti    
    17d7:	cf                   	iret   

000017d8 <interrupt_144>:
    17d8:	fa                   	cli    
    17d9:	6a 00                	push   $0x0
    17db:	68 90 00 00 00       	push   $0x90
    17e0:	60                   	pusha  
    17e1:	66 8c d8             	mov    %ds,%ax
    17e4:	50                   	push   %eax
    17e5:	66 b8 10 00          	mov    $0x10,%ax
    17e9:	8e d8                	mov    %eax,%ds
    17eb:	8e c0                	mov    %eax,%es
    17ed:	8e e0                	mov    %eax,%fs
    17ef:	8e e8                	mov    %eax,%gs
    17f1:	e9 fc ff ff ff       	jmp    17f2 <interrupt_144+0x1a>
    17f6:	58                   	pop    %eax
    17f7:	8e d8                	mov    %eax,%ds
    17f9:	8e c0                	mov    %eax,%es
    17fb:	8e e0                	mov    %eax,%fs
    17fd:	8e e8                	mov    %eax,%gs
    17ff:	61                   	popa   
    1800:	83 c4 08             	add    $0x8,%esp
    1803:	fb                   	sti    
    1804:	cf                   	iret   

00001805 <interrupt_145>:
    1805:	fa                   	cli    
    1806:	6a 00                	push   $0x0
    1808:	68 91 00 00 00       	push   $0x91
    180d:	60                   	pusha  
    180e:	66 8c d8             	mov    %ds,%ax
    1811:	50                   	push   %eax
    1812:	66 b8 10 00          	mov    $0x10,%ax
    1816:	8e d8                	mov    %eax,%ds
    1818:	8e c0                	mov    %eax,%es
    181a:	8e e0                	mov    %eax,%fs
    181c:	8e e8                	mov    %eax,%gs
    181e:	e9 fc ff ff ff       	jmp    181f <interrupt_145+0x1a>
    1823:	58                   	pop    %eax
    1824:	8e d8                	mov    %eax,%ds
    1826:	8e c0                	mov    %eax,%es
    1828:	8e e0                	mov    %eax,%fs
    182a:	8e e8                	mov    %eax,%gs
    182c:	61                   	popa   
    182d:	83 c4 08             	add    $0x8,%esp
    1830:	fb                   	sti    
    1831:	cf                   	iret   

00001832 <interrupt_146>:
    1832:	fa                   	cli    
    1833:	6a 00                	push   $0x0
    1835:	68 92 00 00 00       	push   $0x92
    183a:	60                   	pusha  
    183b:	66 8c d8             	mov    %ds,%ax
    183e:	50                   	push   %eax
    183f:	66 b8 10 00          	mov    $0x10,%ax
    1843:	8e d8                	mov    %eax,%ds
    1845:	8e c0                	mov    %eax,%es
    1847:	8e e0                	mov    %eax,%fs
    1849:	8e e8                	mov    %eax,%gs
    184b:	e9 fc ff ff ff       	jmp    184c <interrupt_146+0x1a>
    1850:	58                   	pop    %eax
    1851:	8e d8                	mov    %eax,%ds
    1853:	8e c0                	mov    %eax,%es
    1855:	8e e0                	mov    %eax,%fs
    1857:	8e e8                	mov    %eax,%gs
    1859:	61                   	popa   
    185a:	83 c4 08             	add    $0x8,%esp
    185d:	fb                   	sti    
    185e:	cf                   	iret   

0000185f <interrupt_147>:
    185f:	fa                   	cli    
    1860:	6a 00                	push   $0x0
    1862:	68 93 00 00 00       	push   $0x93
    1867:	60                   	pusha  
    1868:	66 8c d8             	mov    %ds,%ax
    186b:	50                   	push   %eax
    186c:	66 b8 10 00          	mov    $0x10,%ax
    1870:	8e d8                	mov    %eax,%ds
    1872:	8e c0                	mov    %eax,%es
    1874:	8e e0                	mov    %eax,%fs
    1876:	8e e8                	mov    %eax,%gs
    1878:	e9 fc ff ff ff       	jmp    1879 <interrupt_147+0x1a>
    187d:	58                   	pop    %eax
    187e:	8e d8                	mov    %eax,%ds
    1880:	8e c0                	mov    %eax,%es
    1882:	8e e0                	mov    %eax,%fs
    1884:	8e e8                	mov    %eax,%gs
    1886:	61                   	popa   
    1887:	83 c4 08             	add    $0x8,%esp
    188a:	fb                   	sti    
    188b:	cf                   	iret   

0000188c <interrupt_148>:
    188c:	fa                   	cli    
    188d:	6a 00                	push   $0x0
    188f:	68 94 00 00 00       	push   $0x94
    1894:	60                   	pusha  
    1895:	66 8c d8             	mov    %ds,%ax
    1898:	50                   	push   %eax
    1899:	66 b8 10 00          	mov    $0x10,%ax
    189d:	8e d8                	mov    %eax,%ds
    189f:	8e c0                	mov    %eax,%es
    18a1:	8e e0                	mov    %eax,%fs
    18a3:	8e e8                	mov    %eax,%gs
    18a5:	e9 fc ff ff ff       	jmp    18a6 <interrupt_148+0x1a>
    18aa:	58                   	pop    %eax
    18ab:	8e d8                	mov    %eax,%ds
    18ad:	8e c0                	mov    %eax,%es
    18af:	8e e0                	mov    %eax,%fs
    18b1:	8e e8                	mov    %eax,%gs
    18b3:	61                   	popa   
    18b4:	83 c4 08             	add    $0x8,%esp
    18b7:	fb                   	sti    
    18b8:	cf                   	iret   

000018b9 <interrupt_149>:
    18b9:	fa                   	cli    
    18ba:	6a 00                	push   $0x0
    18bc:	68 95 00 00 00       	push   $0x95
    18c1:	60                   	pusha  
    18c2:	66 8c d8             	mov    %ds,%ax
    18c5:	50                   	push   %eax
    18c6:	66 b8 10 00          	mov    $0x10,%ax
    18ca:	8e d8                	mov    %eax,%ds
    18cc:	8e c0                	mov    %eax,%es
    18ce:	8e e0                	mov    %eax,%fs
    18d0:	8e e8                	mov    %eax,%gs
    18d2:	e9 fc ff ff ff       	jmp    18d3 <interrupt_149+0x1a>
    18d7:	58                   	pop    %eax
    18d8:	8e d8                	mov    %eax,%ds
    18da:	8e c0                	mov    %eax,%es
    18dc:	8e e0                	mov    %eax,%fs
    18de:	8e e8                	mov    %eax,%gs
    18e0:	61                   	popa   
    18e1:	83 c4 08             	add    $0x8,%esp
    18e4:	fb                   	sti    
    18e5:	cf                   	iret   

000018e6 <interrupt_150>:
    18e6:	fa                   	cli    
    18e7:	6a 00                	push   $0x0
    18e9:	68 96 00 00 00       	push   $0x96
    18ee:	60                   	pusha  
    18ef:	66 8c d8             	mov    %ds,%ax
    18f2:	50                   	push   %eax
    18f3:	66 b8 10 00          	mov    $0x10,%ax
    18f7:	8e d8                	mov    %eax,%ds
    18f9:	8e c0                	mov    %eax,%es
    18fb:	8e e0                	mov    %eax,%fs
    18fd:	8e e8                	mov    %eax,%gs
    18ff:	e9 fc ff ff ff       	jmp    1900 <interrupt_150+0x1a>
    1904:	58                   	pop    %eax
    1905:	8e d8                	mov    %eax,%ds
    1907:	8e c0                	mov    %eax,%es
    1909:	8e e0                	mov    %eax,%fs
    190b:	8e e8                	mov    %eax,%gs
    190d:	61                   	popa   
    190e:	83 c4 08             	add    $0x8,%esp
    1911:	fb                   	sti    
    1912:	cf                   	iret   

00001913 <interrupt_151>:
    1913:	fa                   	cli    
    1914:	6a 00                	push   $0x0
    1916:	68 97 00 00 00       	push   $0x97
    191b:	60                   	pusha  
    191c:	66 8c d8             	mov    %ds,%ax
    191f:	50                   	push   %eax
    1920:	66 b8 10 00          	mov    $0x10,%ax
    1924:	8e d8                	mov    %eax,%ds
    1926:	8e c0                	mov    %eax,%es
    1928:	8e e0                	mov    %eax,%fs
    192a:	8e e8                	mov    %eax,%gs
    192c:	e9 fc ff ff ff       	jmp    192d <interrupt_151+0x1a>
    1931:	58                   	pop    %eax
    1932:	8e d8                	mov    %eax,%ds
    1934:	8e c0                	mov    %eax,%es
    1936:	8e e0                	mov    %eax,%fs
    1938:	8e e8                	mov    %eax,%gs
    193a:	61                   	popa   
    193b:	83 c4 08             	add    $0x8,%esp
    193e:	fb                   	sti    
    193f:	cf                   	iret   

00001940 <interrupt_152>:
    1940:	fa                   	cli    
    1941:	6a 00                	push   $0x0
    1943:	68 98 00 00 00       	push   $0x98
    1948:	60                   	pusha  
    1949:	66 8c d8             	mov    %ds,%ax
    194c:	50                   	push   %eax
    194d:	66 b8 10 00          	mov    $0x10,%ax
    1951:	8e d8                	mov    %eax,%ds
    1953:	8e c0                	mov    %eax,%es
    1955:	8e e0                	mov    %eax,%fs
    1957:	8e e8                	mov    %eax,%gs
    1959:	e9 fc ff ff ff       	jmp    195a <interrupt_152+0x1a>
    195e:	58                   	pop    %eax
    195f:	8e d8                	mov    %eax,%ds
    1961:	8e c0                	mov    %eax,%es
    1963:	8e e0                	mov    %eax,%fs
    1965:	8e e8                	mov    %eax,%gs
    1967:	61                   	popa   
    1968:	83 c4 08             	add    $0x8,%esp
    196b:	fb                   	sti    
    196c:	cf                   	iret   

0000196d <interrupt_153>:
    196d:	fa                   	cli    
    196e:	6a 00                	push   $0x0
    1970:	68 99 00 00 00       	push   $0x99
    1975:	60                   	pusha  
    1976:	66 8c d8             	mov    %ds,%ax
    1979:	50                   	push   %eax
    197a:	66 b8 10 00          	mov    $0x10,%ax
    197e:	8e d8                	mov    %eax,%ds
    1980:	8e c0                	mov    %eax,%es
    1982:	8e e0                	mov    %eax,%fs
    1984:	8e e8                	mov    %eax,%gs
    1986:	e9 fc ff ff ff       	jmp    1987 <interrupt_153+0x1a>
    198b:	58                   	pop    %eax
    198c:	8e d8                	mov    %eax,%ds
    198e:	8e c0                	mov    %eax,%es
    1990:	8e e0                	mov    %eax,%fs
    1992:	8e e8                	mov    %eax,%gs
    1994:	61                   	popa   
    1995:	83 c4 08             	add    $0x8,%esp
    1998:	fb                   	sti    
    1999:	cf                   	iret   

0000199a <interrupt_154>:
    199a:	fa                   	cli    
    199b:	6a 00                	push   $0x0
    199d:	68 9a 00 00 00       	push   $0x9a
    19a2:	60                   	pusha  
    19a3:	66 8c d8             	mov    %ds,%ax
    19a6:	50                   	push   %eax
    19a7:	66 b8 10 00          	mov    $0x10,%ax
    19ab:	8e d8                	mov    %eax,%ds
    19ad:	8e c0                	mov    %eax,%es
    19af:	8e e0                	mov    %eax,%fs
    19b1:	8e e8                	mov    %eax,%gs
    19b3:	e9 fc ff ff ff       	jmp    19b4 <interrupt_154+0x1a>
    19b8:	58                   	pop    %eax
    19b9:	8e d8                	mov    %eax,%ds
    19bb:	8e c0                	mov    %eax,%es
    19bd:	8e e0                	mov    %eax,%fs
    19bf:	8e e8                	mov    %eax,%gs
    19c1:	61                   	popa   
    19c2:	83 c4 08             	add    $0x8,%esp
    19c5:	fb                   	sti    
    19c6:	cf                   	iret   

000019c7 <interrupt_155>:
    19c7:	fa                   	cli    
    19c8:	6a 00                	push   $0x0
    19ca:	68 9b 00 00 00       	push   $0x9b
    19cf:	60                   	pusha  
    19d0:	66 8c d8             	mov    %ds,%ax
    19d3:	50                   	push   %eax
    19d4:	66 b8 10 00          	mov    $0x10,%ax
    19d8:	8e d8                	mov    %eax,%ds
    19da:	8e c0                	mov    %eax,%es
    19dc:	8e e0                	mov    %eax,%fs
    19de:	8e e8                	mov    %eax,%gs
    19e0:	e9 fc ff ff ff       	jmp    19e1 <interrupt_155+0x1a>
    19e5:	58                   	pop    %eax
    19e6:	8e d8                	mov    %eax,%ds
    19e8:	8e c0                	mov    %eax,%es
    19ea:	8e e0                	mov    %eax,%fs
    19ec:	8e e8                	mov    %eax,%gs
    19ee:	61                   	popa   
    19ef:	83 c4 08             	add    $0x8,%esp
    19f2:	fb                   	sti    
    19f3:	cf                   	iret   

000019f4 <interrupt_156>:
    19f4:	fa                   	cli    
    19f5:	6a 00                	push   $0x0
    19f7:	68 9c 00 00 00       	push   $0x9c
    19fc:	60                   	pusha  
    19fd:	66 8c d8             	mov    %ds,%ax
    1a00:	50                   	push   %eax
    1a01:	66 b8 10 00          	mov    $0x10,%ax
    1a05:	8e d8                	mov    %eax,%ds
    1a07:	8e c0                	mov    %eax,%es
    1a09:	8e e0                	mov    %eax,%fs
    1a0b:	8e e8                	mov    %eax,%gs
    1a0d:	e9 fc ff ff ff       	jmp    1a0e <interrupt_156+0x1a>
    1a12:	58                   	pop    %eax
    1a13:	8e d8                	mov    %eax,%ds
    1a15:	8e c0                	mov    %eax,%es
    1a17:	8e e0                	mov    %eax,%fs
    1a19:	8e e8                	mov    %eax,%gs
    1a1b:	61                   	popa   
    1a1c:	83 c4 08             	add    $0x8,%esp
    1a1f:	fb                   	sti    
    1a20:	cf                   	iret   

00001a21 <interrupt_157>:
    1a21:	fa                   	cli    
    1a22:	6a 00                	push   $0x0
    1a24:	68 9d 00 00 00       	push   $0x9d
    1a29:	60                   	pusha  
    1a2a:	66 8c d8             	mov    %ds,%ax
    1a2d:	50                   	push   %eax
    1a2e:	66 b8 10 00          	mov    $0x10,%ax
    1a32:	8e d8                	mov    %eax,%ds
    1a34:	8e c0                	mov    %eax,%es
    1a36:	8e e0                	mov    %eax,%fs
    1a38:	8e e8                	mov    %eax,%gs
    1a3a:	e9 fc ff ff ff       	jmp    1a3b <interrupt_157+0x1a>
    1a3f:	58                   	pop    %eax
    1a40:	8e d8                	mov    %eax,%ds
    1a42:	8e c0                	mov    %eax,%es
    1a44:	8e e0                	mov    %eax,%fs
    1a46:	8e e8                	mov    %eax,%gs
    1a48:	61                   	popa   
    1a49:	83 c4 08             	add    $0x8,%esp
    1a4c:	fb                   	sti    
    1a4d:	cf                   	iret   

00001a4e <interrupt_158>:
    1a4e:	fa                   	cli    
    1a4f:	6a 00                	push   $0x0
    1a51:	68 9e 00 00 00       	push   $0x9e
    1a56:	60                   	pusha  
    1a57:	66 8c d8             	mov    %ds,%ax
    1a5a:	50                   	push   %eax
    1a5b:	66 b8 10 00          	mov    $0x10,%ax
    1a5f:	8e d8                	mov    %eax,%ds
    1a61:	8e c0                	mov    %eax,%es
    1a63:	8e e0                	mov    %eax,%fs
    1a65:	8e e8                	mov    %eax,%gs
    1a67:	e9 fc ff ff ff       	jmp    1a68 <interrupt_158+0x1a>
    1a6c:	58                   	pop    %eax
    1a6d:	8e d8                	mov    %eax,%ds
    1a6f:	8e c0                	mov    %eax,%es
    1a71:	8e e0                	mov    %eax,%fs
    1a73:	8e e8                	mov    %eax,%gs
    1a75:	61                   	popa   
    1a76:	83 c4 08             	add    $0x8,%esp
    1a79:	fb                   	sti    
    1a7a:	cf                   	iret   

00001a7b <interrupt_159>:
    1a7b:	fa                   	cli    
    1a7c:	6a 00                	push   $0x0
    1a7e:	68 9f 00 00 00       	push   $0x9f
    1a83:	60                   	pusha  
    1a84:	66 8c d8             	mov    %ds,%ax
    1a87:	50                   	push   %eax
    1a88:	66 b8 10 00          	mov    $0x10,%ax
    1a8c:	8e d8                	mov    %eax,%ds
    1a8e:	8e c0                	mov    %eax,%es
    1a90:	8e e0                	mov    %eax,%fs
    1a92:	8e e8                	mov    %eax,%gs
    1a94:	e9 fc ff ff ff       	jmp    1a95 <interrupt_159+0x1a>
    1a99:	58                   	pop    %eax
    1a9a:	8e d8                	mov    %eax,%ds
    1a9c:	8e c0                	mov    %eax,%es
    1a9e:	8e e0                	mov    %eax,%fs
    1aa0:	8e e8                	mov    %eax,%gs
    1aa2:	61                   	popa   
    1aa3:	83 c4 08             	add    $0x8,%esp
    1aa6:	fb                   	sti    
    1aa7:	cf                   	iret   

00001aa8 <interrupt_160>:
    1aa8:	fa                   	cli    
    1aa9:	6a 00                	push   $0x0
    1aab:	68 a0 00 00 00       	push   $0xa0
    1ab0:	60                   	pusha  
    1ab1:	66 8c d8             	mov    %ds,%ax
    1ab4:	50                   	push   %eax
    1ab5:	66 b8 10 00          	mov    $0x10,%ax
    1ab9:	8e d8                	mov    %eax,%ds
    1abb:	8e c0                	mov    %eax,%es
    1abd:	8e e0                	mov    %eax,%fs
    1abf:	8e e8                	mov    %eax,%gs
    1ac1:	e9 fc ff ff ff       	jmp    1ac2 <interrupt_160+0x1a>
    1ac6:	58                   	pop    %eax
    1ac7:	8e d8                	mov    %eax,%ds
    1ac9:	8e c0                	mov    %eax,%es
    1acb:	8e e0                	mov    %eax,%fs
    1acd:	8e e8                	mov    %eax,%gs
    1acf:	61                   	popa   
    1ad0:	83 c4 08             	add    $0x8,%esp
    1ad3:	fb                   	sti    
    1ad4:	cf                   	iret   

00001ad5 <interrupt_161>:
    1ad5:	fa                   	cli    
    1ad6:	6a 00                	push   $0x0
    1ad8:	68 a1 00 00 00       	push   $0xa1
    1add:	60                   	pusha  
    1ade:	66 8c d8             	mov    %ds,%ax
    1ae1:	50                   	push   %eax
    1ae2:	66 b8 10 00          	mov    $0x10,%ax
    1ae6:	8e d8                	mov    %eax,%ds
    1ae8:	8e c0                	mov    %eax,%es
    1aea:	8e e0                	mov    %eax,%fs
    1aec:	8e e8                	mov    %eax,%gs
    1aee:	e9 fc ff ff ff       	jmp    1aef <interrupt_161+0x1a>
    1af3:	58                   	pop    %eax
    1af4:	8e d8                	mov    %eax,%ds
    1af6:	8e c0                	mov    %eax,%es
    1af8:	8e e0                	mov    %eax,%fs
    1afa:	8e e8                	mov    %eax,%gs
    1afc:	61                   	popa   
    1afd:	83 c4 08             	add    $0x8,%esp
    1b00:	fb                   	sti    
    1b01:	cf                   	iret   

00001b02 <interrupt_162>:
    1b02:	fa                   	cli    
    1b03:	6a 00                	push   $0x0
    1b05:	68 a2 00 00 00       	push   $0xa2
    1b0a:	60                   	pusha  
    1b0b:	66 8c d8             	mov    %ds,%ax
    1b0e:	50                   	push   %eax
    1b0f:	66 b8 10 00          	mov    $0x10,%ax
    1b13:	8e d8                	mov    %eax,%ds
    1b15:	8e c0                	mov    %eax,%es
    1b17:	8e e0                	mov    %eax,%fs
    1b19:	8e e8                	mov    %eax,%gs
    1b1b:	e9 fc ff ff ff       	jmp    1b1c <interrupt_162+0x1a>
    1b20:	58                   	pop    %eax
    1b21:	8e d8                	mov    %eax,%ds
    1b23:	8e c0                	mov    %eax,%es
    1b25:	8e e0                	mov    %eax,%fs
    1b27:	8e e8                	mov    %eax,%gs
    1b29:	61                   	popa   
    1b2a:	83 c4 08             	add    $0x8,%esp
    1b2d:	fb                   	sti    
    1b2e:	cf                   	iret   

00001b2f <interrupt_163>:
    1b2f:	fa                   	cli    
    1b30:	6a 00                	push   $0x0
    1b32:	68 a3 00 00 00       	push   $0xa3
    1b37:	60                   	pusha  
    1b38:	66 8c d8             	mov    %ds,%ax
    1b3b:	50                   	push   %eax
    1b3c:	66 b8 10 00          	mov    $0x10,%ax
    1b40:	8e d8                	mov    %eax,%ds
    1b42:	8e c0                	mov    %eax,%es
    1b44:	8e e0                	mov    %eax,%fs
    1b46:	8e e8                	mov    %eax,%gs
    1b48:	e9 fc ff ff ff       	jmp    1b49 <interrupt_163+0x1a>
    1b4d:	58                   	pop    %eax
    1b4e:	8e d8                	mov    %eax,%ds
    1b50:	8e c0                	mov    %eax,%es
    1b52:	8e e0                	mov    %eax,%fs
    1b54:	8e e8                	mov    %eax,%gs
    1b56:	61                   	popa   
    1b57:	83 c4 08             	add    $0x8,%esp
    1b5a:	fb                   	sti    
    1b5b:	cf                   	iret   

00001b5c <interrupt_164>:
    1b5c:	fa                   	cli    
    1b5d:	6a 00                	push   $0x0
    1b5f:	68 a4 00 00 00       	push   $0xa4
    1b64:	60                   	pusha  
    1b65:	66 8c d8             	mov    %ds,%ax
    1b68:	50                   	push   %eax
    1b69:	66 b8 10 00          	mov    $0x10,%ax
    1b6d:	8e d8                	mov    %eax,%ds
    1b6f:	8e c0                	mov    %eax,%es
    1b71:	8e e0                	mov    %eax,%fs
    1b73:	8e e8                	mov    %eax,%gs
    1b75:	e9 fc ff ff ff       	jmp    1b76 <interrupt_164+0x1a>
    1b7a:	58                   	pop    %eax
    1b7b:	8e d8                	mov    %eax,%ds
    1b7d:	8e c0                	mov    %eax,%es
    1b7f:	8e e0                	mov    %eax,%fs
    1b81:	8e e8                	mov    %eax,%gs
    1b83:	61                   	popa   
    1b84:	83 c4 08             	add    $0x8,%esp
    1b87:	fb                   	sti    
    1b88:	cf                   	iret   

00001b89 <interrupt_165>:
    1b89:	fa                   	cli    
    1b8a:	6a 00                	push   $0x0
    1b8c:	68 a5 00 00 00       	push   $0xa5
    1b91:	60                   	pusha  
    1b92:	66 8c d8             	mov    %ds,%ax
    1b95:	50                   	push   %eax
    1b96:	66 b8 10 00          	mov    $0x10,%ax
    1b9a:	8e d8                	mov    %eax,%ds
    1b9c:	8e c0                	mov    %eax,%es
    1b9e:	8e e0                	mov    %eax,%fs
    1ba0:	8e e8                	mov    %eax,%gs
    1ba2:	e9 fc ff ff ff       	jmp    1ba3 <interrupt_165+0x1a>
    1ba7:	58                   	pop    %eax
    1ba8:	8e d8                	mov    %eax,%ds
    1baa:	8e c0                	mov    %eax,%es
    1bac:	8e e0                	mov    %eax,%fs
    1bae:	8e e8                	mov    %eax,%gs
    1bb0:	61                   	popa   
    1bb1:	83 c4 08             	add    $0x8,%esp
    1bb4:	fb                   	sti    
    1bb5:	cf                   	iret   

00001bb6 <interrupt_166>:
    1bb6:	fa                   	cli    
    1bb7:	6a 00                	push   $0x0
    1bb9:	68 a6 00 00 00       	push   $0xa6
    1bbe:	60                   	pusha  
    1bbf:	66 8c d8             	mov    %ds,%ax
    1bc2:	50                   	push   %eax
    1bc3:	66 b8 10 00          	mov    $0x10,%ax
    1bc7:	8e d8                	mov    %eax,%ds
    1bc9:	8e c0                	mov    %eax,%es
    1bcb:	8e e0                	mov    %eax,%fs
    1bcd:	8e e8                	mov    %eax,%gs
    1bcf:	e9 fc ff ff ff       	jmp    1bd0 <interrupt_166+0x1a>
    1bd4:	58                   	pop    %eax
    1bd5:	8e d8                	mov    %eax,%ds
    1bd7:	8e c0                	mov    %eax,%es
    1bd9:	8e e0                	mov    %eax,%fs
    1bdb:	8e e8                	mov    %eax,%gs
    1bdd:	61                   	popa   
    1bde:	83 c4 08             	add    $0x8,%esp
    1be1:	fb                   	sti    
    1be2:	cf                   	iret   

00001be3 <interrupt_167>:
    1be3:	fa                   	cli    
    1be4:	6a 00                	push   $0x0
    1be6:	68 a7 00 00 00       	push   $0xa7
    1beb:	60                   	pusha  
    1bec:	66 8c d8             	mov    %ds,%ax
    1bef:	50                   	push   %eax
    1bf0:	66 b8 10 00          	mov    $0x10,%ax
    1bf4:	8e d8                	mov    %eax,%ds
    1bf6:	8e c0                	mov    %eax,%es
    1bf8:	8e e0                	mov    %eax,%fs
    1bfa:	8e e8                	mov    %eax,%gs
    1bfc:	e9 fc ff ff ff       	jmp    1bfd <interrupt_167+0x1a>
    1c01:	58                   	pop    %eax
    1c02:	8e d8                	mov    %eax,%ds
    1c04:	8e c0                	mov    %eax,%es
    1c06:	8e e0                	mov    %eax,%fs
    1c08:	8e e8                	mov    %eax,%gs
    1c0a:	61                   	popa   
    1c0b:	83 c4 08             	add    $0x8,%esp
    1c0e:	fb                   	sti    
    1c0f:	cf                   	iret   

00001c10 <interrupt_168>:
    1c10:	fa                   	cli    
    1c11:	6a 00                	push   $0x0
    1c13:	68 a8 00 00 00       	push   $0xa8
    1c18:	60                   	pusha  
    1c19:	66 8c d8             	mov    %ds,%ax
    1c1c:	50                   	push   %eax
    1c1d:	66 b8 10 00          	mov    $0x10,%ax
    1c21:	8e d8                	mov    %eax,%ds
    1c23:	8e c0                	mov    %eax,%es
    1c25:	8e e0                	mov    %eax,%fs
    1c27:	8e e8                	mov    %eax,%gs
    1c29:	e9 fc ff ff ff       	jmp    1c2a <interrupt_168+0x1a>
    1c2e:	58                   	pop    %eax
    1c2f:	8e d8                	mov    %eax,%ds
    1c31:	8e c0                	mov    %eax,%es
    1c33:	8e e0                	mov    %eax,%fs
    1c35:	8e e8                	mov    %eax,%gs
    1c37:	61                   	popa   
    1c38:	83 c4 08             	add    $0x8,%esp
    1c3b:	fb                   	sti    
    1c3c:	cf                   	iret   

00001c3d <interrupt_169>:
    1c3d:	fa                   	cli    
    1c3e:	6a 00                	push   $0x0
    1c40:	68 a9 00 00 00       	push   $0xa9
    1c45:	60                   	pusha  
    1c46:	66 8c d8             	mov    %ds,%ax
    1c49:	50                   	push   %eax
    1c4a:	66 b8 10 00          	mov    $0x10,%ax
    1c4e:	8e d8                	mov    %eax,%ds
    1c50:	8e c0                	mov    %eax,%es
    1c52:	8e e0                	mov    %eax,%fs
    1c54:	8e e8                	mov    %eax,%gs
    1c56:	e9 fc ff ff ff       	jmp    1c57 <interrupt_169+0x1a>
    1c5b:	58                   	pop    %eax
    1c5c:	8e d8                	mov    %eax,%ds
    1c5e:	8e c0                	mov    %eax,%es
    1c60:	8e e0                	mov    %eax,%fs
    1c62:	8e e8                	mov    %eax,%gs
    1c64:	61                   	popa   
    1c65:	83 c4 08             	add    $0x8,%esp
    1c68:	fb                   	sti    
    1c69:	cf                   	iret   

00001c6a <interrupt_170>:
    1c6a:	fa                   	cli    
    1c6b:	6a 00                	push   $0x0
    1c6d:	68 aa 00 00 00       	push   $0xaa
    1c72:	60                   	pusha  
    1c73:	66 8c d8             	mov    %ds,%ax
    1c76:	50                   	push   %eax
    1c77:	66 b8 10 00          	mov    $0x10,%ax
    1c7b:	8e d8                	mov    %eax,%ds
    1c7d:	8e c0                	mov    %eax,%es
    1c7f:	8e e0                	mov    %eax,%fs
    1c81:	8e e8                	mov    %eax,%gs
    1c83:	e9 fc ff ff ff       	jmp    1c84 <interrupt_170+0x1a>
    1c88:	58                   	pop    %eax
    1c89:	8e d8                	mov    %eax,%ds
    1c8b:	8e c0                	mov    %eax,%es
    1c8d:	8e e0                	mov    %eax,%fs
    1c8f:	8e e8                	mov    %eax,%gs
    1c91:	61                   	popa   
    1c92:	83 c4 08             	add    $0x8,%esp
    1c95:	fb                   	sti    
    1c96:	cf                   	iret   

00001c97 <interrupt_171>:
    1c97:	fa                   	cli    
    1c98:	6a 00                	push   $0x0
    1c9a:	68 ab 00 00 00       	push   $0xab
    1c9f:	60                   	pusha  
    1ca0:	66 8c d8             	mov    %ds,%ax
    1ca3:	50                   	push   %eax
    1ca4:	66 b8 10 00          	mov    $0x10,%ax
    1ca8:	8e d8                	mov    %eax,%ds
    1caa:	8e c0                	mov    %eax,%es
    1cac:	8e e0                	mov    %eax,%fs
    1cae:	8e e8                	mov    %eax,%gs
    1cb0:	e9 fc ff ff ff       	jmp    1cb1 <interrupt_171+0x1a>
    1cb5:	58                   	pop    %eax
    1cb6:	8e d8                	mov    %eax,%ds
    1cb8:	8e c0                	mov    %eax,%es
    1cba:	8e e0                	mov    %eax,%fs
    1cbc:	8e e8                	mov    %eax,%gs
    1cbe:	61                   	popa   
    1cbf:	83 c4 08             	add    $0x8,%esp
    1cc2:	fb                   	sti    
    1cc3:	cf                   	iret   

00001cc4 <interrupt_172>:
    1cc4:	fa                   	cli    
    1cc5:	6a 00                	push   $0x0
    1cc7:	68 ac 00 00 00       	push   $0xac
    1ccc:	60                   	pusha  
    1ccd:	66 8c d8             	mov    %ds,%ax
    1cd0:	50                   	push   %eax
    1cd1:	66 b8 10 00          	mov    $0x10,%ax
    1cd5:	8e d8                	mov    %eax,%ds
    1cd7:	8e c0                	mov    %eax,%es
    1cd9:	8e e0                	mov    %eax,%fs
    1cdb:	8e e8                	mov    %eax,%gs
    1cdd:	e9 fc ff ff ff       	jmp    1cde <interrupt_172+0x1a>
    1ce2:	58                   	pop    %eax
    1ce3:	8e d8                	mov    %eax,%ds
    1ce5:	8e c0                	mov    %eax,%es
    1ce7:	8e e0                	mov    %eax,%fs
    1ce9:	8e e8                	mov    %eax,%gs
    1ceb:	61                   	popa   
    1cec:	83 c4 08             	add    $0x8,%esp
    1cef:	fb                   	sti    
    1cf0:	cf                   	iret   

00001cf1 <interrupt_173>:
    1cf1:	fa                   	cli    
    1cf2:	6a 00                	push   $0x0
    1cf4:	68 ad 00 00 00       	push   $0xad
    1cf9:	60                   	pusha  
    1cfa:	66 8c d8             	mov    %ds,%ax
    1cfd:	50                   	push   %eax
    1cfe:	66 b8 10 00          	mov    $0x10,%ax
    1d02:	8e d8                	mov    %eax,%ds
    1d04:	8e c0                	mov    %eax,%es
    1d06:	8e e0                	mov    %eax,%fs
    1d08:	8e e8                	mov    %eax,%gs
    1d0a:	e9 fc ff ff ff       	jmp    1d0b <interrupt_173+0x1a>
    1d0f:	58                   	pop    %eax
    1d10:	8e d8                	mov    %eax,%ds
    1d12:	8e c0                	mov    %eax,%es
    1d14:	8e e0                	mov    %eax,%fs
    1d16:	8e e8                	mov    %eax,%gs
    1d18:	61                   	popa   
    1d19:	83 c4 08             	add    $0x8,%esp
    1d1c:	fb                   	sti    
    1d1d:	cf                   	iret   

00001d1e <interrupt_174>:
    1d1e:	fa                   	cli    
    1d1f:	6a 00                	push   $0x0
    1d21:	68 ae 00 00 00       	push   $0xae
    1d26:	60                   	pusha  
    1d27:	66 8c d8             	mov    %ds,%ax
    1d2a:	50                   	push   %eax
    1d2b:	66 b8 10 00          	mov    $0x10,%ax
    1d2f:	8e d8                	mov    %eax,%ds
    1d31:	8e c0                	mov    %eax,%es
    1d33:	8e e0                	mov    %eax,%fs
    1d35:	8e e8                	mov    %eax,%gs
    1d37:	e9 fc ff ff ff       	jmp    1d38 <interrupt_174+0x1a>
    1d3c:	58                   	pop    %eax
    1d3d:	8e d8                	mov    %eax,%ds
    1d3f:	8e c0                	mov    %eax,%es
    1d41:	8e e0                	mov    %eax,%fs
    1d43:	8e e8                	mov    %eax,%gs
    1d45:	61                   	popa   
    1d46:	83 c4 08             	add    $0x8,%esp
    1d49:	fb                   	sti    
    1d4a:	cf                   	iret   

00001d4b <interrupt_175>:
    1d4b:	fa                   	cli    
    1d4c:	6a 00                	push   $0x0
    1d4e:	68 af 00 00 00       	push   $0xaf
    1d53:	60                   	pusha  
    1d54:	66 8c d8             	mov    %ds,%ax
    1d57:	50                   	push   %eax
    1d58:	66 b8 10 00          	mov    $0x10,%ax
    1d5c:	8e d8                	mov    %eax,%ds
    1d5e:	8e c0                	mov    %eax,%es
    1d60:	8e e0                	mov    %eax,%fs
    1d62:	8e e8                	mov    %eax,%gs
    1d64:	e9 fc ff ff ff       	jmp    1d65 <interrupt_175+0x1a>
    1d69:	58                   	pop    %eax
    1d6a:	8e d8                	mov    %eax,%ds
    1d6c:	8e c0                	mov    %eax,%es
    1d6e:	8e e0                	mov    %eax,%fs
    1d70:	8e e8                	mov    %eax,%gs
    1d72:	61                   	popa   
    1d73:	83 c4 08             	add    $0x8,%esp
    1d76:	fb                   	sti    
    1d77:	cf                   	iret   

00001d78 <interrupt_176>:
    1d78:	fa                   	cli    
    1d79:	6a 00                	push   $0x0
    1d7b:	68 b0 00 00 00       	push   $0xb0
    1d80:	60                   	pusha  
    1d81:	66 8c d8             	mov    %ds,%ax
    1d84:	50                   	push   %eax
    1d85:	66 b8 10 00          	mov    $0x10,%ax
    1d89:	8e d8                	mov    %eax,%ds
    1d8b:	8e c0                	mov    %eax,%es
    1d8d:	8e e0                	mov    %eax,%fs
    1d8f:	8e e8                	mov    %eax,%gs
    1d91:	e9 fc ff ff ff       	jmp    1d92 <interrupt_176+0x1a>
    1d96:	58                   	pop    %eax
    1d97:	8e d8                	mov    %eax,%ds
    1d99:	8e c0                	mov    %eax,%es
    1d9b:	8e e0                	mov    %eax,%fs
    1d9d:	8e e8                	mov    %eax,%gs
    1d9f:	61                   	popa   
    1da0:	83 c4 08             	add    $0x8,%esp
    1da3:	fb                   	sti    
    1da4:	cf                   	iret   

00001da5 <interrupt_177>:
    1da5:	fa                   	cli    
    1da6:	6a 00                	push   $0x0
    1da8:	68 b1 00 00 00       	push   $0xb1
    1dad:	60                   	pusha  
    1dae:	66 8c d8             	mov    %ds,%ax
    1db1:	50                   	push   %eax
    1db2:	66 b8 10 00          	mov    $0x10,%ax
    1db6:	8e d8                	mov    %eax,%ds
    1db8:	8e c0                	mov    %eax,%es
    1dba:	8e e0                	mov    %eax,%fs
    1dbc:	8e e8                	mov    %eax,%gs
    1dbe:	e9 fc ff ff ff       	jmp    1dbf <interrupt_177+0x1a>
    1dc3:	58                   	pop    %eax
    1dc4:	8e d8                	mov    %eax,%ds
    1dc6:	8e c0                	mov    %eax,%es
    1dc8:	8e e0                	mov    %eax,%fs
    1dca:	8e e8                	mov    %eax,%gs
    1dcc:	61                   	popa   
    1dcd:	83 c4 08             	add    $0x8,%esp
    1dd0:	fb                   	sti    
    1dd1:	cf                   	iret   

00001dd2 <interrupt_178>:
    1dd2:	fa                   	cli    
    1dd3:	6a 00                	push   $0x0
    1dd5:	68 b2 00 00 00       	push   $0xb2
    1dda:	60                   	pusha  
    1ddb:	66 8c d8             	mov    %ds,%ax
    1dde:	50                   	push   %eax
    1ddf:	66 b8 10 00          	mov    $0x10,%ax
    1de3:	8e d8                	mov    %eax,%ds
    1de5:	8e c0                	mov    %eax,%es
    1de7:	8e e0                	mov    %eax,%fs
    1de9:	8e e8                	mov    %eax,%gs
    1deb:	e9 fc ff ff ff       	jmp    1dec <interrupt_178+0x1a>
    1df0:	58                   	pop    %eax
    1df1:	8e d8                	mov    %eax,%ds
    1df3:	8e c0                	mov    %eax,%es
    1df5:	8e e0                	mov    %eax,%fs
    1df7:	8e e8                	mov    %eax,%gs
    1df9:	61                   	popa   
    1dfa:	83 c4 08             	add    $0x8,%esp
    1dfd:	fb                   	sti    
    1dfe:	cf                   	iret   

00001dff <interrupt_179>:
    1dff:	fa                   	cli    
    1e00:	6a 00                	push   $0x0
    1e02:	68 b3 00 00 00       	push   $0xb3
    1e07:	60                   	pusha  
    1e08:	66 8c d8             	mov    %ds,%ax
    1e0b:	50                   	push   %eax
    1e0c:	66 b8 10 00          	mov    $0x10,%ax
    1e10:	8e d8                	mov    %eax,%ds
    1e12:	8e c0                	mov    %eax,%es
    1e14:	8e e0                	mov    %eax,%fs
    1e16:	8e e8                	mov    %eax,%gs
    1e18:	e9 fc ff ff ff       	jmp    1e19 <interrupt_179+0x1a>
    1e1d:	58                   	pop    %eax
    1e1e:	8e d8                	mov    %eax,%ds
    1e20:	8e c0                	mov    %eax,%es
    1e22:	8e e0                	mov    %eax,%fs
    1e24:	8e e8                	mov    %eax,%gs
    1e26:	61                   	popa   
    1e27:	83 c4 08             	add    $0x8,%esp
    1e2a:	fb                   	sti    
    1e2b:	cf                   	iret   

00001e2c <interrupt_180>:
    1e2c:	fa                   	cli    
    1e2d:	6a 00                	push   $0x0
    1e2f:	68 b4 00 00 00       	push   $0xb4
    1e34:	60                   	pusha  
    1e35:	66 8c d8             	mov    %ds,%ax
    1e38:	50                   	push   %eax
    1e39:	66 b8 10 00          	mov    $0x10,%ax
    1e3d:	8e d8                	mov    %eax,%ds
    1e3f:	8e c0                	mov    %eax,%es
    1e41:	8e e0                	mov    %eax,%fs
    1e43:	8e e8                	mov    %eax,%gs
    1e45:	e9 fc ff ff ff       	jmp    1e46 <interrupt_180+0x1a>
    1e4a:	58                   	pop    %eax
    1e4b:	8e d8                	mov    %eax,%ds
    1e4d:	8e c0                	mov    %eax,%es
    1e4f:	8e e0                	mov    %eax,%fs
    1e51:	8e e8                	mov    %eax,%gs
    1e53:	61                   	popa   
    1e54:	83 c4 08             	add    $0x8,%esp
    1e57:	fb                   	sti    
    1e58:	cf                   	iret   

00001e59 <interrupt_181>:
    1e59:	fa                   	cli    
    1e5a:	6a 00                	push   $0x0
    1e5c:	68 b5 00 00 00       	push   $0xb5
    1e61:	60                   	pusha  
    1e62:	66 8c d8             	mov    %ds,%ax
    1e65:	50                   	push   %eax
    1e66:	66 b8 10 00          	mov    $0x10,%ax
    1e6a:	8e d8                	mov    %eax,%ds
    1e6c:	8e c0                	mov    %eax,%es
    1e6e:	8e e0                	mov    %eax,%fs
    1e70:	8e e8                	mov    %eax,%gs
    1e72:	e9 fc ff ff ff       	jmp    1e73 <interrupt_181+0x1a>
    1e77:	58                   	pop    %eax
    1e78:	8e d8                	mov    %eax,%ds
    1e7a:	8e c0                	mov    %eax,%es
    1e7c:	8e e0                	mov    %eax,%fs
    1e7e:	8e e8                	mov    %eax,%gs
    1e80:	61                   	popa   
    1e81:	83 c4 08             	add    $0x8,%esp
    1e84:	fb                   	sti    
    1e85:	cf                   	iret   

00001e86 <interrupt_182>:
    1e86:	fa                   	cli    
    1e87:	6a 00                	push   $0x0
    1e89:	68 b6 00 00 00       	push   $0xb6
    1e8e:	60                   	pusha  
    1e8f:	66 8c d8             	mov    %ds,%ax
    1e92:	50                   	push   %eax
    1e93:	66 b8 10 00          	mov    $0x10,%ax
    1e97:	8e d8                	mov    %eax,%ds
    1e99:	8e c0                	mov    %eax,%es
    1e9b:	8e e0                	mov    %eax,%fs
    1e9d:	8e e8                	mov    %eax,%gs
    1e9f:	e9 fc ff ff ff       	jmp    1ea0 <interrupt_182+0x1a>
    1ea4:	58                   	pop    %eax
    1ea5:	8e d8                	mov    %eax,%ds
    1ea7:	8e c0                	mov    %eax,%es
    1ea9:	8e e0                	mov    %eax,%fs
    1eab:	8e e8                	mov    %eax,%gs
    1ead:	61                   	popa   
    1eae:	83 c4 08             	add    $0x8,%esp
    1eb1:	fb                   	sti    
    1eb2:	cf                   	iret   

00001eb3 <interrupt_183>:
    1eb3:	fa                   	cli    
    1eb4:	6a 00                	push   $0x0
    1eb6:	68 b7 00 00 00       	push   $0xb7
    1ebb:	60                   	pusha  
    1ebc:	66 8c d8             	mov    %ds,%ax
    1ebf:	50                   	push   %eax
    1ec0:	66 b8 10 00          	mov    $0x10,%ax
    1ec4:	8e d8                	mov    %eax,%ds
    1ec6:	8e c0                	mov    %eax,%es
    1ec8:	8e e0                	mov    %eax,%fs
    1eca:	8e e8                	mov    %eax,%gs
    1ecc:	e9 fc ff ff ff       	jmp    1ecd <interrupt_183+0x1a>
    1ed1:	58                   	pop    %eax
    1ed2:	8e d8                	mov    %eax,%ds
    1ed4:	8e c0                	mov    %eax,%es
    1ed6:	8e e0                	mov    %eax,%fs
    1ed8:	8e e8                	mov    %eax,%gs
    1eda:	61                   	popa   
    1edb:	83 c4 08             	add    $0x8,%esp
    1ede:	fb                   	sti    
    1edf:	cf                   	iret   

00001ee0 <interrupt_184>:
    1ee0:	fa                   	cli    
    1ee1:	6a 00                	push   $0x0
    1ee3:	68 b8 00 00 00       	push   $0xb8
    1ee8:	60                   	pusha  
    1ee9:	66 8c d8             	mov    %ds,%ax
    1eec:	50                   	push   %eax
    1eed:	66 b8 10 00          	mov    $0x10,%ax
    1ef1:	8e d8                	mov    %eax,%ds
    1ef3:	8e c0                	mov    %eax,%es
    1ef5:	8e e0                	mov    %eax,%fs
    1ef7:	8e e8                	mov    %eax,%gs
    1ef9:	e9 fc ff ff ff       	jmp    1efa <interrupt_184+0x1a>
    1efe:	58                   	pop    %eax
    1eff:	8e d8                	mov    %eax,%ds
    1f01:	8e c0                	mov    %eax,%es
    1f03:	8e e0                	mov    %eax,%fs
    1f05:	8e e8                	mov    %eax,%gs
    1f07:	61                   	popa   
    1f08:	83 c4 08             	add    $0x8,%esp
    1f0b:	fb                   	sti    
    1f0c:	cf                   	iret   

00001f0d <interrupt_185>:
    1f0d:	fa                   	cli    
    1f0e:	6a 00                	push   $0x0
    1f10:	68 b9 00 00 00       	push   $0xb9
    1f15:	60                   	pusha  
    1f16:	66 8c d8             	mov    %ds,%ax
    1f19:	50                   	push   %eax
    1f1a:	66 b8 10 00          	mov    $0x10,%ax
    1f1e:	8e d8                	mov    %eax,%ds
    1f20:	8e c0                	mov    %eax,%es
    1f22:	8e e0                	mov    %eax,%fs
    1f24:	8e e8                	mov    %eax,%gs
    1f26:	e9 fc ff ff ff       	jmp    1f27 <interrupt_185+0x1a>
    1f2b:	58                   	pop    %eax
    1f2c:	8e d8                	mov    %eax,%ds
    1f2e:	8e c0                	mov    %eax,%es
    1f30:	8e e0                	mov    %eax,%fs
    1f32:	8e e8                	mov    %eax,%gs
    1f34:	61                   	popa   
    1f35:	83 c4 08             	add    $0x8,%esp
    1f38:	fb                   	sti    
    1f39:	cf                   	iret   

00001f3a <interrupt_186>:
    1f3a:	fa                   	cli    
    1f3b:	6a 00                	push   $0x0
    1f3d:	68 ba 00 00 00       	push   $0xba
    1f42:	60                   	pusha  
    1f43:	66 8c d8             	mov    %ds,%ax
    1f46:	50                   	push   %eax
    1f47:	66 b8 10 00          	mov    $0x10,%ax
    1f4b:	8e d8                	mov    %eax,%ds
    1f4d:	8e c0                	mov    %eax,%es
    1f4f:	8e e0                	mov    %eax,%fs
    1f51:	8e e8                	mov    %eax,%gs
    1f53:	e9 fc ff ff ff       	jmp    1f54 <interrupt_186+0x1a>
    1f58:	58                   	pop    %eax
    1f59:	8e d8                	mov    %eax,%ds
    1f5b:	8e c0                	mov    %eax,%es
    1f5d:	8e e0                	mov    %eax,%fs
    1f5f:	8e e8                	mov    %eax,%gs
    1f61:	61                   	popa   
    1f62:	83 c4 08             	add    $0x8,%esp
    1f65:	fb                   	sti    
    1f66:	cf                   	iret   

00001f67 <interrupt_187>:
    1f67:	fa                   	cli    
    1f68:	6a 00                	push   $0x0
    1f6a:	68 bb 00 00 00       	push   $0xbb
    1f6f:	60                   	pusha  
    1f70:	66 8c d8             	mov    %ds,%ax
    1f73:	50                   	push   %eax
    1f74:	66 b8 10 00          	mov    $0x10,%ax
    1f78:	8e d8                	mov    %eax,%ds
    1f7a:	8e c0                	mov    %eax,%es
    1f7c:	8e e0                	mov    %eax,%fs
    1f7e:	8e e8                	mov    %eax,%gs
    1f80:	e9 fc ff ff ff       	jmp    1f81 <interrupt_187+0x1a>
    1f85:	58                   	pop    %eax
    1f86:	8e d8                	mov    %eax,%ds
    1f88:	8e c0                	mov    %eax,%es
    1f8a:	8e e0                	mov    %eax,%fs
    1f8c:	8e e8                	mov    %eax,%gs
    1f8e:	61                   	popa   
    1f8f:	83 c4 08             	add    $0x8,%esp
    1f92:	fb                   	sti    
    1f93:	cf                   	iret   

00001f94 <interrupt_188>:
    1f94:	fa                   	cli    
    1f95:	6a 00                	push   $0x0
    1f97:	68 bc 00 00 00       	push   $0xbc
    1f9c:	60                   	pusha  
    1f9d:	66 8c d8             	mov    %ds,%ax
    1fa0:	50                   	push   %eax
    1fa1:	66 b8 10 00          	mov    $0x10,%ax
    1fa5:	8e d8                	mov    %eax,%ds
    1fa7:	8e c0                	mov    %eax,%es
    1fa9:	8e e0                	mov    %eax,%fs
    1fab:	8e e8                	mov    %eax,%gs
    1fad:	e9 fc ff ff ff       	jmp    1fae <interrupt_188+0x1a>
    1fb2:	58                   	pop    %eax
    1fb3:	8e d8                	mov    %eax,%ds
    1fb5:	8e c0                	mov    %eax,%es
    1fb7:	8e e0                	mov    %eax,%fs
    1fb9:	8e e8                	mov    %eax,%gs
    1fbb:	61                   	popa   
    1fbc:	83 c4 08             	add    $0x8,%esp
    1fbf:	fb                   	sti    
    1fc0:	cf                   	iret   

00001fc1 <interrupt_189>:
    1fc1:	fa                   	cli    
    1fc2:	6a 00                	push   $0x0
    1fc4:	68 bd 00 00 00       	push   $0xbd
    1fc9:	60                   	pusha  
    1fca:	66 8c d8             	mov    %ds,%ax
    1fcd:	50                   	push   %eax
    1fce:	66 b8 10 00          	mov    $0x10,%ax
    1fd2:	8e d8                	mov    %eax,%ds
    1fd4:	8e c0                	mov    %eax,%es
    1fd6:	8e e0                	mov    %eax,%fs
    1fd8:	8e e8                	mov    %eax,%gs
    1fda:	e9 fc ff ff ff       	jmp    1fdb <interrupt_189+0x1a>
    1fdf:	58                   	pop    %eax
    1fe0:	8e d8                	mov    %eax,%ds
    1fe2:	8e c0                	mov    %eax,%es
    1fe4:	8e e0                	mov    %eax,%fs
    1fe6:	8e e8                	mov    %eax,%gs
    1fe8:	61                   	popa   
    1fe9:	83 c4 08             	add    $0x8,%esp
    1fec:	fb                   	sti    
    1fed:	cf                   	iret   

00001fee <interrupt_190>:
    1fee:	fa                   	cli    
    1fef:	6a 00                	push   $0x0
    1ff1:	68 be 00 00 00       	push   $0xbe
    1ff6:	60                   	pusha  
    1ff7:	66 8c d8             	mov    %ds,%ax
    1ffa:	50                   	push   %eax
    1ffb:	66 b8 10 00          	mov    $0x10,%ax
    1fff:	8e d8                	mov    %eax,%ds
    2001:	8e c0                	mov    %eax,%es
    2003:	8e e0                	mov    %eax,%fs
    2005:	8e e8                	mov    %eax,%gs
    2007:	e9 fc ff ff ff       	jmp    2008 <interrupt_190+0x1a>
    200c:	58                   	pop    %eax
    200d:	8e d8                	mov    %eax,%ds
    200f:	8e c0                	mov    %eax,%es
    2011:	8e e0                	mov    %eax,%fs
    2013:	8e e8                	mov    %eax,%gs
    2015:	61                   	popa   
    2016:	83 c4 08             	add    $0x8,%esp
    2019:	fb                   	sti    
    201a:	cf                   	iret   

0000201b <interrupt_191>:
    201b:	fa                   	cli    
    201c:	6a 00                	push   $0x0
    201e:	68 bf 00 00 00       	push   $0xbf
    2023:	60                   	pusha  
    2024:	66 8c d8             	mov    %ds,%ax
    2027:	50                   	push   %eax
    2028:	66 b8 10 00          	mov    $0x10,%ax
    202c:	8e d8                	mov    %eax,%ds
    202e:	8e c0                	mov    %eax,%es
    2030:	8e e0                	mov    %eax,%fs
    2032:	8e e8                	mov    %eax,%gs
    2034:	e9 fc ff ff ff       	jmp    2035 <interrupt_191+0x1a>
    2039:	58                   	pop    %eax
    203a:	8e d8                	mov    %eax,%ds
    203c:	8e c0                	mov    %eax,%es
    203e:	8e e0                	mov    %eax,%fs
    2040:	8e e8                	mov    %eax,%gs
    2042:	61                   	popa   
    2043:	83 c4 08             	add    $0x8,%esp
    2046:	fb                   	sti    
    2047:	cf                   	iret   

00002048 <interrupt_192>:
    2048:	fa                   	cli    
    2049:	6a 00                	push   $0x0
    204b:	68 c0 00 00 00       	push   $0xc0
    2050:	60                   	pusha  
    2051:	66 8c d8             	mov    %ds,%ax
    2054:	50                   	push   %eax
    2055:	66 b8 10 00          	mov    $0x10,%ax
    2059:	8e d8                	mov    %eax,%ds
    205b:	8e c0                	mov    %eax,%es
    205d:	8e e0                	mov    %eax,%fs
    205f:	8e e8                	mov    %eax,%gs
    2061:	e9 fc ff ff ff       	jmp    2062 <interrupt_192+0x1a>
    2066:	58                   	pop    %eax
    2067:	8e d8                	mov    %eax,%ds
    2069:	8e c0                	mov    %eax,%es
    206b:	8e e0                	mov    %eax,%fs
    206d:	8e e8                	mov    %eax,%gs
    206f:	61                   	popa   
    2070:	83 c4 08             	add    $0x8,%esp
    2073:	fb                   	sti    
    2074:	cf                   	iret   

00002075 <interrupt_193>:
    2075:	fa                   	cli    
    2076:	6a 00                	push   $0x0
    2078:	68 c1 00 00 00       	push   $0xc1
    207d:	60                   	pusha  
    207e:	66 8c d8             	mov    %ds,%ax
    2081:	50                   	push   %eax
    2082:	66 b8 10 00          	mov    $0x10,%ax
    2086:	8e d8                	mov    %eax,%ds
    2088:	8e c0                	mov    %eax,%es
    208a:	8e e0                	mov    %eax,%fs
    208c:	8e e8                	mov    %eax,%gs
    208e:	e9 fc ff ff ff       	jmp    208f <interrupt_193+0x1a>
    2093:	58                   	pop    %eax
    2094:	8e d8                	mov    %eax,%ds
    2096:	8e c0                	mov    %eax,%es
    2098:	8e e0                	mov    %eax,%fs
    209a:	8e e8                	mov    %eax,%gs
    209c:	61                   	popa   
    209d:	83 c4 08             	add    $0x8,%esp
    20a0:	fb                   	sti    
    20a1:	cf                   	iret   

000020a2 <interrupt_194>:
    20a2:	fa                   	cli    
    20a3:	6a 00                	push   $0x0
    20a5:	68 c2 00 00 00       	push   $0xc2
    20aa:	60                   	pusha  
    20ab:	66 8c d8             	mov    %ds,%ax
    20ae:	50                   	push   %eax
    20af:	66 b8 10 00          	mov    $0x10,%ax
    20b3:	8e d8                	mov    %eax,%ds
    20b5:	8e c0                	mov    %eax,%es
    20b7:	8e e0                	mov    %eax,%fs
    20b9:	8e e8                	mov    %eax,%gs
    20bb:	e9 fc ff ff ff       	jmp    20bc <interrupt_194+0x1a>
    20c0:	58                   	pop    %eax
    20c1:	8e d8                	mov    %eax,%ds
    20c3:	8e c0                	mov    %eax,%es
    20c5:	8e e0                	mov    %eax,%fs
    20c7:	8e e8                	mov    %eax,%gs
    20c9:	61                   	popa   
    20ca:	83 c4 08             	add    $0x8,%esp
    20cd:	fb                   	sti    
    20ce:	cf                   	iret   

000020cf <interrupt_195>:
    20cf:	fa                   	cli    
    20d0:	6a 00                	push   $0x0
    20d2:	68 c3 00 00 00       	push   $0xc3
    20d7:	60                   	pusha  
    20d8:	66 8c d8             	mov    %ds,%ax
    20db:	50                   	push   %eax
    20dc:	66 b8 10 00          	mov    $0x10,%ax
    20e0:	8e d8                	mov    %eax,%ds
    20e2:	8e c0                	mov    %eax,%es
    20e4:	8e e0                	mov    %eax,%fs
    20e6:	8e e8                	mov    %eax,%gs
    20e8:	e9 fc ff ff ff       	jmp    20e9 <interrupt_195+0x1a>
    20ed:	58                   	pop    %eax
    20ee:	8e d8                	mov    %eax,%ds
    20f0:	8e c0                	mov    %eax,%es
    20f2:	8e e0                	mov    %eax,%fs
    20f4:	8e e8                	mov    %eax,%gs
    20f6:	61                   	popa   
    20f7:	83 c4 08             	add    $0x8,%esp
    20fa:	fb                   	sti    
    20fb:	cf                   	iret   

000020fc <interrupt_196>:
    20fc:	fa                   	cli    
    20fd:	6a 00                	push   $0x0
    20ff:	68 c4 00 00 00       	push   $0xc4
    2104:	60                   	pusha  
    2105:	66 8c d8             	mov    %ds,%ax
    2108:	50                   	push   %eax
    2109:	66 b8 10 00          	mov    $0x10,%ax
    210d:	8e d8                	mov    %eax,%ds
    210f:	8e c0                	mov    %eax,%es
    2111:	8e e0                	mov    %eax,%fs
    2113:	8e e8                	mov    %eax,%gs
    2115:	e9 fc ff ff ff       	jmp    2116 <interrupt_196+0x1a>
    211a:	58                   	pop    %eax
    211b:	8e d8                	mov    %eax,%ds
    211d:	8e c0                	mov    %eax,%es
    211f:	8e e0                	mov    %eax,%fs
    2121:	8e e8                	mov    %eax,%gs
    2123:	61                   	popa   
    2124:	83 c4 08             	add    $0x8,%esp
    2127:	fb                   	sti    
    2128:	cf                   	iret   

00002129 <interrupt_197>:
    2129:	fa                   	cli    
    212a:	6a 00                	push   $0x0
    212c:	68 c5 00 00 00       	push   $0xc5
    2131:	60                   	pusha  
    2132:	66 8c d8             	mov    %ds,%ax
    2135:	50                   	push   %eax
    2136:	66 b8 10 00          	mov    $0x10,%ax
    213a:	8e d8                	mov    %eax,%ds
    213c:	8e c0                	mov    %eax,%es
    213e:	8e e0                	mov    %eax,%fs
    2140:	8e e8                	mov    %eax,%gs
    2142:	e9 fc ff ff ff       	jmp    2143 <interrupt_197+0x1a>
    2147:	58                   	pop    %eax
    2148:	8e d8                	mov    %eax,%ds
    214a:	8e c0                	mov    %eax,%es
    214c:	8e e0                	mov    %eax,%fs
    214e:	8e e8                	mov    %eax,%gs
    2150:	61                   	popa   
    2151:	83 c4 08             	add    $0x8,%esp
    2154:	fb                   	sti    
    2155:	cf                   	iret   

00002156 <interrupt_198>:
    2156:	fa                   	cli    
    2157:	6a 00                	push   $0x0
    2159:	68 c6 00 00 00       	push   $0xc6
    215e:	60                   	pusha  
    215f:	66 8c d8             	mov    %ds,%ax
    2162:	50                   	push   %eax
    2163:	66 b8 10 00          	mov    $0x10,%ax
    2167:	8e d8                	mov    %eax,%ds
    2169:	8e c0                	mov    %eax,%es
    216b:	8e e0                	mov    %eax,%fs
    216d:	8e e8                	mov    %eax,%gs
    216f:	e9 fc ff ff ff       	jmp    2170 <interrupt_198+0x1a>
    2174:	58                   	pop    %eax
    2175:	8e d8                	mov    %eax,%ds
    2177:	8e c0                	mov    %eax,%es
    2179:	8e e0                	mov    %eax,%fs
    217b:	8e e8                	mov    %eax,%gs
    217d:	61                   	popa   
    217e:	83 c4 08             	add    $0x8,%esp
    2181:	fb                   	sti    
    2182:	cf                   	iret   

00002183 <interrupt_199>:
    2183:	fa                   	cli    
    2184:	6a 00                	push   $0x0
    2186:	68 c7 00 00 00       	push   $0xc7
    218b:	60                   	pusha  
    218c:	66 8c d8             	mov    %ds,%ax
    218f:	50                   	push   %eax
    2190:	66 b8 10 00          	mov    $0x10,%ax
    2194:	8e d8                	mov    %eax,%ds
    2196:	8e c0                	mov    %eax,%es
    2198:	8e e0                	mov    %eax,%fs
    219a:	8e e8                	mov    %eax,%gs
    219c:	e9 fc ff ff ff       	jmp    219d <interrupt_199+0x1a>
    21a1:	58                   	pop    %eax
    21a2:	8e d8                	mov    %eax,%ds
    21a4:	8e c0                	mov    %eax,%es
    21a6:	8e e0                	mov    %eax,%fs
    21a8:	8e e8                	mov    %eax,%gs
    21aa:	61                   	popa   
    21ab:	83 c4 08             	add    $0x8,%esp
    21ae:	fb                   	sti    
    21af:	cf                   	iret   

000021b0 <interrupt_200>:
    21b0:	fa                   	cli    
    21b1:	6a 00                	push   $0x0
    21b3:	68 c8 00 00 00       	push   $0xc8
    21b8:	60                   	pusha  
    21b9:	66 8c d8             	mov    %ds,%ax
    21bc:	50                   	push   %eax
    21bd:	66 b8 10 00          	mov    $0x10,%ax
    21c1:	8e d8                	mov    %eax,%ds
    21c3:	8e c0                	mov    %eax,%es
    21c5:	8e e0                	mov    %eax,%fs
    21c7:	8e e8                	mov    %eax,%gs
    21c9:	e9 fc ff ff ff       	jmp    21ca <interrupt_200+0x1a>
    21ce:	58                   	pop    %eax
    21cf:	8e d8                	mov    %eax,%ds
    21d1:	8e c0                	mov    %eax,%es
    21d3:	8e e0                	mov    %eax,%fs
    21d5:	8e e8                	mov    %eax,%gs
    21d7:	61                   	popa   
    21d8:	83 c4 08             	add    $0x8,%esp
    21db:	fb                   	sti    
    21dc:	cf                   	iret   

000021dd <interrupt_201>:
    21dd:	fa                   	cli    
    21de:	6a 00                	push   $0x0
    21e0:	68 c9 00 00 00       	push   $0xc9
    21e5:	60                   	pusha  
    21e6:	66 8c d8             	mov    %ds,%ax
    21e9:	50                   	push   %eax
    21ea:	66 b8 10 00          	mov    $0x10,%ax
    21ee:	8e d8                	mov    %eax,%ds
    21f0:	8e c0                	mov    %eax,%es
    21f2:	8e e0                	mov    %eax,%fs
    21f4:	8e e8                	mov    %eax,%gs
    21f6:	e9 fc ff ff ff       	jmp    21f7 <interrupt_201+0x1a>
    21fb:	58                   	pop    %eax
    21fc:	8e d8                	mov    %eax,%ds
    21fe:	8e c0                	mov    %eax,%es
    2200:	8e e0                	mov    %eax,%fs
    2202:	8e e8                	mov    %eax,%gs
    2204:	61                   	popa   
    2205:	83 c4 08             	add    $0x8,%esp
    2208:	fb                   	sti    
    2209:	cf                   	iret   

0000220a <interrupt_202>:
    220a:	fa                   	cli    
    220b:	6a 00                	push   $0x0
    220d:	68 ca 00 00 00       	push   $0xca
    2212:	60                   	pusha  
    2213:	66 8c d8             	mov    %ds,%ax
    2216:	50                   	push   %eax
    2217:	66 b8 10 00          	mov    $0x10,%ax
    221b:	8e d8                	mov    %eax,%ds
    221d:	8e c0                	mov    %eax,%es
    221f:	8e e0                	mov    %eax,%fs
    2221:	8e e8                	mov    %eax,%gs
    2223:	e9 fc ff ff ff       	jmp    2224 <interrupt_202+0x1a>
    2228:	58                   	pop    %eax
    2229:	8e d8                	mov    %eax,%ds
    222b:	8e c0                	mov    %eax,%es
    222d:	8e e0                	mov    %eax,%fs
    222f:	8e e8                	mov    %eax,%gs
    2231:	61                   	popa   
    2232:	83 c4 08             	add    $0x8,%esp
    2235:	fb                   	sti    
    2236:	cf                   	iret   

00002237 <interrupt_203>:
    2237:	fa                   	cli    
    2238:	6a 00                	push   $0x0
    223a:	68 cb 00 00 00       	push   $0xcb
    223f:	60                   	pusha  
    2240:	66 8c d8             	mov    %ds,%ax
    2243:	50                   	push   %eax
    2244:	66 b8 10 00          	mov    $0x10,%ax
    2248:	8e d8                	mov    %eax,%ds
    224a:	8e c0                	mov    %eax,%es
    224c:	8e e0                	mov    %eax,%fs
    224e:	8e e8                	mov    %eax,%gs
    2250:	e9 fc ff ff ff       	jmp    2251 <interrupt_203+0x1a>
    2255:	58                   	pop    %eax
    2256:	8e d8                	mov    %eax,%ds
    2258:	8e c0                	mov    %eax,%es
    225a:	8e e0                	mov    %eax,%fs
    225c:	8e e8                	mov    %eax,%gs
    225e:	61                   	popa   
    225f:	83 c4 08             	add    $0x8,%esp
    2262:	fb                   	sti    
    2263:	cf                   	iret   

00002264 <interrupt_204>:
    2264:	fa                   	cli    
    2265:	6a 00                	push   $0x0
    2267:	68 cc 00 00 00       	push   $0xcc
    226c:	60                   	pusha  
    226d:	66 8c d8             	mov    %ds,%ax
    2270:	50                   	push   %eax
    2271:	66 b8 10 00          	mov    $0x10,%ax
    2275:	8e d8                	mov    %eax,%ds
    2277:	8e c0                	mov    %eax,%es
    2279:	8e e0                	mov    %eax,%fs
    227b:	8e e8                	mov    %eax,%gs
    227d:	e9 fc ff ff ff       	jmp    227e <interrupt_204+0x1a>
    2282:	58                   	pop    %eax
    2283:	8e d8                	mov    %eax,%ds
    2285:	8e c0                	mov    %eax,%es
    2287:	8e e0                	mov    %eax,%fs
    2289:	8e e8                	mov    %eax,%gs
    228b:	61                   	popa   
    228c:	83 c4 08             	add    $0x8,%esp
    228f:	fb                   	sti    
    2290:	cf                   	iret   

00002291 <interrupt_205>:
    2291:	fa                   	cli    
    2292:	6a 00                	push   $0x0
    2294:	68 cd 00 00 00       	push   $0xcd
    2299:	60                   	pusha  
    229a:	66 8c d8             	mov    %ds,%ax
    229d:	50                   	push   %eax
    229e:	66 b8 10 00          	mov    $0x10,%ax
    22a2:	8e d8                	mov    %eax,%ds
    22a4:	8e c0                	mov    %eax,%es
    22a6:	8e e0                	mov    %eax,%fs
    22a8:	8e e8                	mov    %eax,%gs
    22aa:	e9 fc ff ff ff       	jmp    22ab <interrupt_205+0x1a>
    22af:	58                   	pop    %eax
    22b0:	8e d8                	mov    %eax,%ds
    22b2:	8e c0                	mov    %eax,%es
    22b4:	8e e0                	mov    %eax,%fs
    22b6:	8e e8                	mov    %eax,%gs
    22b8:	61                   	popa   
    22b9:	83 c4 08             	add    $0x8,%esp
    22bc:	fb                   	sti    
    22bd:	cf                   	iret   

000022be <interrupt_206>:
    22be:	fa                   	cli    
    22bf:	6a 00                	push   $0x0
    22c1:	68 ce 00 00 00       	push   $0xce
    22c6:	60                   	pusha  
    22c7:	66 8c d8             	mov    %ds,%ax
    22ca:	50                   	push   %eax
    22cb:	66 b8 10 00          	mov    $0x10,%ax
    22cf:	8e d8                	mov    %eax,%ds
    22d1:	8e c0                	mov    %eax,%es
    22d3:	8e e0                	mov    %eax,%fs
    22d5:	8e e8                	mov    %eax,%gs
    22d7:	e9 fc ff ff ff       	jmp    22d8 <interrupt_206+0x1a>
    22dc:	58                   	pop    %eax
    22dd:	8e d8                	mov    %eax,%ds
    22df:	8e c0                	mov    %eax,%es
    22e1:	8e e0                	mov    %eax,%fs
    22e3:	8e e8                	mov    %eax,%gs
    22e5:	61                   	popa   
    22e6:	83 c4 08             	add    $0x8,%esp
    22e9:	fb                   	sti    
    22ea:	cf                   	iret   

000022eb <interrupt_207>:
    22eb:	fa                   	cli    
    22ec:	6a 00                	push   $0x0
    22ee:	68 cf 00 00 00       	push   $0xcf
    22f3:	60                   	pusha  
    22f4:	66 8c d8             	mov    %ds,%ax
    22f7:	50                   	push   %eax
    22f8:	66 b8 10 00          	mov    $0x10,%ax
    22fc:	8e d8                	mov    %eax,%ds
    22fe:	8e c0                	mov    %eax,%es
    2300:	8e e0                	mov    %eax,%fs
    2302:	8e e8                	mov    %eax,%gs
    2304:	e9 fc ff ff ff       	jmp    2305 <interrupt_207+0x1a>
    2309:	58                   	pop    %eax
    230a:	8e d8                	mov    %eax,%ds
    230c:	8e c0                	mov    %eax,%es
    230e:	8e e0                	mov    %eax,%fs
    2310:	8e e8                	mov    %eax,%gs
    2312:	61                   	popa   
    2313:	83 c4 08             	add    $0x8,%esp
    2316:	fb                   	sti    
    2317:	cf                   	iret   

00002318 <interrupt_208>:
    2318:	fa                   	cli    
    2319:	6a 00                	push   $0x0
    231b:	68 d0 00 00 00       	push   $0xd0
    2320:	60                   	pusha  
    2321:	66 8c d8             	mov    %ds,%ax
    2324:	50                   	push   %eax
    2325:	66 b8 10 00          	mov    $0x10,%ax
    2329:	8e d8                	mov    %eax,%ds
    232b:	8e c0                	mov    %eax,%es
    232d:	8e e0                	mov    %eax,%fs
    232f:	8e e8                	mov    %eax,%gs
    2331:	e9 fc ff ff ff       	jmp    2332 <interrupt_208+0x1a>
    2336:	58                   	pop    %eax
    2337:	8e d8                	mov    %eax,%ds
    2339:	8e c0                	mov    %eax,%es
    233b:	8e e0                	mov    %eax,%fs
    233d:	8e e8                	mov    %eax,%gs
    233f:	61                   	popa   
    2340:	83 c4 08             	add    $0x8,%esp
    2343:	fb                   	sti    
    2344:	cf                   	iret   

00002345 <interrupt_209>:
    2345:	fa                   	cli    
    2346:	6a 00                	push   $0x0
    2348:	68 d1 00 00 00       	push   $0xd1
    234d:	60                   	pusha  
    234e:	66 8c d8             	mov    %ds,%ax
    2351:	50                   	push   %eax
    2352:	66 b8 10 00          	mov    $0x10,%ax
    2356:	8e d8                	mov    %eax,%ds
    2358:	8e c0                	mov    %eax,%es
    235a:	8e e0                	mov    %eax,%fs
    235c:	8e e8                	mov    %eax,%gs
    235e:	e9 fc ff ff ff       	jmp    235f <interrupt_209+0x1a>
    2363:	58                   	pop    %eax
    2364:	8e d8                	mov    %eax,%ds
    2366:	8e c0                	mov    %eax,%es
    2368:	8e e0                	mov    %eax,%fs
    236a:	8e e8                	mov    %eax,%gs
    236c:	61                   	popa   
    236d:	83 c4 08             	add    $0x8,%esp
    2370:	fb                   	sti    
    2371:	cf                   	iret   

00002372 <interrupt_210>:
    2372:	fa                   	cli    
    2373:	6a 00                	push   $0x0
    2375:	68 d2 00 00 00       	push   $0xd2
    237a:	60                   	pusha  
    237b:	66 8c d8             	mov    %ds,%ax
    237e:	50                   	push   %eax
    237f:	66 b8 10 00          	mov    $0x10,%ax
    2383:	8e d8                	mov    %eax,%ds
    2385:	8e c0                	mov    %eax,%es
    2387:	8e e0                	mov    %eax,%fs
    2389:	8e e8                	mov    %eax,%gs
    238b:	e9 fc ff ff ff       	jmp    238c <interrupt_210+0x1a>
    2390:	58                   	pop    %eax
    2391:	8e d8                	mov    %eax,%ds
    2393:	8e c0                	mov    %eax,%es
    2395:	8e e0                	mov    %eax,%fs
    2397:	8e e8                	mov    %eax,%gs
    2399:	61                   	popa   
    239a:	83 c4 08             	add    $0x8,%esp
    239d:	fb                   	sti    
    239e:	cf                   	iret   

0000239f <interrupt_211>:
    239f:	fa                   	cli    
    23a0:	6a 00                	push   $0x0
    23a2:	68 d3 00 00 00       	push   $0xd3
    23a7:	60                   	pusha  
    23a8:	66 8c d8             	mov    %ds,%ax
    23ab:	50                   	push   %eax
    23ac:	66 b8 10 00          	mov    $0x10,%ax
    23b0:	8e d8                	mov    %eax,%ds
    23b2:	8e c0                	mov    %eax,%es
    23b4:	8e e0                	mov    %eax,%fs
    23b6:	8e e8                	mov    %eax,%gs
    23b8:	e9 fc ff ff ff       	jmp    23b9 <interrupt_211+0x1a>
    23bd:	58                   	pop    %eax
    23be:	8e d8                	mov    %eax,%ds
    23c0:	8e c0                	mov    %eax,%es
    23c2:	8e e0                	mov    %eax,%fs
    23c4:	8e e8                	mov    %eax,%gs
    23c6:	61                   	popa   
    23c7:	83 c4 08             	add    $0x8,%esp
    23ca:	fb                   	sti    
    23cb:	cf                   	iret   

000023cc <interrupt_212>:
    23cc:	fa                   	cli    
    23cd:	6a 00                	push   $0x0
    23cf:	68 d4 00 00 00       	push   $0xd4
    23d4:	60                   	pusha  
    23d5:	66 8c d8             	mov    %ds,%ax
    23d8:	50                   	push   %eax
    23d9:	66 b8 10 00          	mov    $0x10,%ax
    23dd:	8e d8                	mov    %eax,%ds
    23df:	8e c0                	mov    %eax,%es
    23e1:	8e e0                	mov    %eax,%fs
    23e3:	8e e8                	mov    %eax,%gs
    23e5:	e9 fc ff ff ff       	jmp    23e6 <interrupt_212+0x1a>
    23ea:	58                   	pop    %eax
    23eb:	8e d8                	mov    %eax,%ds
    23ed:	8e c0                	mov    %eax,%es
    23ef:	8e e0                	mov    %eax,%fs
    23f1:	8e e8                	mov    %eax,%gs
    23f3:	61                   	popa   
    23f4:	83 c4 08             	add    $0x8,%esp
    23f7:	fb                   	sti    
    23f8:	cf                   	iret   

000023f9 <interrupt_213>:
    23f9:	fa                   	cli    
    23fa:	6a 00                	push   $0x0
    23fc:	68 d5 00 00 00       	push   $0xd5
    2401:	60                   	pusha  
    2402:	66 8c d8             	mov    %ds,%ax
    2405:	50                   	push   %eax
    2406:	66 b8 10 00          	mov    $0x10,%ax
    240a:	8e d8                	mov    %eax,%ds
    240c:	8e c0                	mov    %eax,%es
    240e:	8e e0                	mov    %eax,%fs
    2410:	8e e8                	mov    %eax,%gs
    2412:	e9 fc ff ff ff       	jmp    2413 <interrupt_213+0x1a>
    2417:	58                   	pop    %eax
    2418:	8e d8                	mov    %eax,%ds
    241a:	8e c0                	mov    %eax,%es
    241c:	8e e0                	mov    %eax,%fs
    241e:	8e e8                	mov    %eax,%gs
    2420:	61                   	popa   
    2421:	83 c4 08             	add    $0x8,%esp
    2424:	fb                   	sti    
    2425:	cf                   	iret   

00002426 <interrupt_214>:
    2426:	fa                   	cli    
    2427:	6a 00                	push   $0x0
    2429:	68 d6 00 00 00       	push   $0xd6
    242e:	60                   	pusha  
    242f:	66 8c d8             	mov    %ds,%ax
    2432:	50                   	push   %eax
    2433:	66 b8 10 00          	mov    $0x10,%ax
    2437:	8e d8                	mov    %eax,%ds
    2439:	8e c0                	mov    %eax,%es
    243b:	8e e0                	mov    %eax,%fs
    243d:	8e e8                	mov    %eax,%gs
    243f:	e9 fc ff ff ff       	jmp    2440 <interrupt_214+0x1a>
    2444:	58                   	pop    %eax
    2445:	8e d8                	mov    %eax,%ds
    2447:	8e c0                	mov    %eax,%es
    2449:	8e e0                	mov    %eax,%fs
    244b:	8e e8                	mov    %eax,%gs
    244d:	61                   	popa   
    244e:	83 c4 08             	add    $0x8,%esp
    2451:	fb                   	sti    
    2452:	cf                   	iret   

00002453 <interrupt_215>:
    2453:	fa                   	cli    
    2454:	6a 00                	push   $0x0
    2456:	68 d7 00 00 00       	push   $0xd7
    245b:	60                   	pusha  
    245c:	66 8c d8             	mov    %ds,%ax
    245f:	50                   	push   %eax
    2460:	66 b8 10 00          	mov    $0x10,%ax
    2464:	8e d8                	mov    %eax,%ds
    2466:	8e c0                	mov    %eax,%es
    2468:	8e e0                	mov    %eax,%fs
    246a:	8e e8                	mov    %eax,%gs
    246c:	e9 fc ff ff ff       	jmp    246d <interrupt_215+0x1a>
    2471:	58                   	pop    %eax
    2472:	8e d8                	mov    %eax,%ds
    2474:	8e c0                	mov    %eax,%es
    2476:	8e e0                	mov    %eax,%fs
    2478:	8e e8                	mov    %eax,%gs
    247a:	61                   	popa   
    247b:	83 c4 08             	add    $0x8,%esp
    247e:	fb                   	sti    
    247f:	cf                   	iret   

00002480 <interrupt_216>:
    2480:	fa                   	cli    
    2481:	6a 00                	push   $0x0
    2483:	68 d8 00 00 00       	push   $0xd8
    2488:	60                   	pusha  
    2489:	66 8c d8             	mov    %ds,%ax
    248c:	50                   	push   %eax
    248d:	66 b8 10 00          	mov    $0x10,%ax
    2491:	8e d8                	mov    %eax,%ds
    2493:	8e c0                	mov    %eax,%es
    2495:	8e e0                	mov    %eax,%fs
    2497:	8e e8                	mov    %eax,%gs
    2499:	e9 fc ff ff ff       	jmp    249a <interrupt_216+0x1a>
    249e:	58                   	pop    %eax
    249f:	8e d8                	mov    %eax,%ds
    24a1:	8e c0                	mov    %eax,%es
    24a3:	8e e0                	mov    %eax,%fs
    24a5:	8e e8                	mov    %eax,%gs
    24a7:	61                   	popa   
    24a8:	83 c4 08             	add    $0x8,%esp
    24ab:	fb                   	sti    
    24ac:	cf                   	iret   

000024ad <interrupt_217>:
    24ad:	fa                   	cli    
    24ae:	6a 00                	push   $0x0
    24b0:	68 d9 00 00 00       	push   $0xd9
    24b5:	60                   	pusha  
    24b6:	66 8c d8             	mov    %ds,%ax
    24b9:	50                   	push   %eax
    24ba:	66 b8 10 00          	mov    $0x10,%ax
    24be:	8e d8                	mov    %eax,%ds
    24c0:	8e c0                	mov    %eax,%es
    24c2:	8e e0                	mov    %eax,%fs
    24c4:	8e e8                	mov    %eax,%gs
    24c6:	e9 fc ff ff ff       	jmp    24c7 <interrupt_217+0x1a>
    24cb:	58                   	pop    %eax
    24cc:	8e d8                	mov    %eax,%ds
    24ce:	8e c0                	mov    %eax,%es
    24d0:	8e e0                	mov    %eax,%fs
    24d2:	8e e8                	mov    %eax,%gs
    24d4:	61                   	popa   
    24d5:	83 c4 08             	add    $0x8,%esp
    24d8:	fb                   	sti    
    24d9:	cf                   	iret   

000024da <interrupt_218>:
    24da:	fa                   	cli    
    24db:	6a 00                	push   $0x0
    24dd:	68 da 00 00 00       	push   $0xda
    24e2:	60                   	pusha  
    24e3:	66 8c d8             	mov    %ds,%ax
    24e6:	50                   	push   %eax
    24e7:	66 b8 10 00          	mov    $0x10,%ax
    24eb:	8e d8                	mov    %eax,%ds
    24ed:	8e c0                	mov    %eax,%es
    24ef:	8e e0                	mov    %eax,%fs
    24f1:	8e e8                	mov    %eax,%gs
    24f3:	e9 fc ff ff ff       	jmp    24f4 <interrupt_218+0x1a>
    24f8:	58                   	pop    %eax
    24f9:	8e d8                	mov    %eax,%ds
    24fb:	8e c0                	mov    %eax,%es
    24fd:	8e e0                	mov    %eax,%fs
    24ff:	8e e8                	mov    %eax,%gs
    2501:	61                   	popa   
    2502:	83 c4 08             	add    $0x8,%esp
    2505:	fb                   	sti    
    2506:	cf                   	iret   

00002507 <interrupt_219>:
    2507:	fa                   	cli    
    2508:	6a 00                	push   $0x0
    250a:	68 db 00 00 00       	push   $0xdb
    250f:	60                   	pusha  
    2510:	66 8c d8             	mov    %ds,%ax
    2513:	50                   	push   %eax
    2514:	66 b8 10 00          	mov    $0x10,%ax
    2518:	8e d8                	mov    %eax,%ds
    251a:	8e c0                	mov    %eax,%es
    251c:	8e e0                	mov    %eax,%fs
    251e:	8e e8                	mov    %eax,%gs
    2520:	e9 fc ff ff ff       	jmp    2521 <interrupt_219+0x1a>
    2525:	58                   	pop    %eax
    2526:	8e d8                	mov    %eax,%ds
    2528:	8e c0                	mov    %eax,%es
    252a:	8e e0                	mov    %eax,%fs
    252c:	8e e8                	mov    %eax,%gs
    252e:	61                   	popa   
    252f:	83 c4 08             	add    $0x8,%esp
    2532:	fb                   	sti    
    2533:	cf                   	iret   

00002534 <interrupt_220>:
    2534:	fa                   	cli    
    2535:	6a 00                	push   $0x0
    2537:	68 dc 00 00 00       	push   $0xdc
    253c:	60                   	pusha  
    253d:	66 8c d8             	mov    %ds,%ax
    2540:	50                   	push   %eax
    2541:	66 b8 10 00          	mov    $0x10,%ax
    2545:	8e d8                	mov    %eax,%ds
    2547:	8e c0                	mov    %eax,%es
    2549:	8e e0                	mov    %eax,%fs
    254b:	8e e8                	mov    %eax,%gs
    254d:	e9 fc ff ff ff       	jmp    254e <interrupt_220+0x1a>
    2552:	58                   	pop    %eax
    2553:	8e d8                	mov    %eax,%ds
    2555:	8e c0                	mov    %eax,%es
    2557:	8e e0                	mov    %eax,%fs
    2559:	8e e8                	mov    %eax,%gs
    255b:	61                   	popa   
    255c:	83 c4 08             	add    $0x8,%esp
    255f:	fb                   	sti    
    2560:	cf                   	iret   

00002561 <interrupt_221>:
    2561:	fa                   	cli    
    2562:	6a 00                	push   $0x0
    2564:	68 dd 00 00 00       	push   $0xdd
    2569:	60                   	pusha  
    256a:	66 8c d8             	mov    %ds,%ax
    256d:	50                   	push   %eax
    256e:	66 b8 10 00          	mov    $0x10,%ax
    2572:	8e d8                	mov    %eax,%ds
    2574:	8e c0                	mov    %eax,%es
    2576:	8e e0                	mov    %eax,%fs
    2578:	8e e8                	mov    %eax,%gs
    257a:	e9 fc ff ff ff       	jmp    257b <interrupt_221+0x1a>
    257f:	58                   	pop    %eax
    2580:	8e d8                	mov    %eax,%ds
    2582:	8e c0                	mov    %eax,%es
    2584:	8e e0                	mov    %eax,%fs
    2586:	8e e8                	mov    %eax,%gs
    2588:	61                   	popa   
    2589:	83 c4 08             	add    $0x8,%esp
    258c:	fb                   	sti    
    258d:	cf                   	iret   

0000258e <interrupt_222>:
    258e:	fa                   	cli    
    258f:	6a 00                	push   $0x0
    2591:	68 de 00 00 00       	push   $0xde
    2596:	60                   	pusha  
    2597:	66 8c d8             	mov    %ds,%ax
    259a:	50                   	push   %eax
    259b:	66 b8 10 00          	mov    $0x10,%ax
    259f:	8e d8                	mov    %eax,%ds
    25a1:	8e c0                	mov    %eax,%es
    25a3:	8e e0                	mov    %eax,%fs
    25a5:	8e e8                	mov    %eax,%gs
    25a7:	e9 fc ff ff ff       	jmp    25a8 <interrupt_222+0x1a>
    25ac:	58                   	pop    %eax
    25ad:	8e d8                	mov    %eax,%ds
    25af:	8e c0                	mov    %eax,%es
    25b1:	8e e0                	mov    %eax,%fs
    25b3:	8e e8                	mov    %eax,%gs
    25b5:	61                   	popa   
    25b6:	83 c4 08             	add    $0x8,%esp
    25b9:	fb                   	sti    
    25ba:	cf                   	iret   

000025bb <interrupt_223>:
    25bb:	fa                   	cli    
    25bc:	6a 00                	push   $0x0
    25be:	68 df 00 00 00       	push   $0xdf
    25c3:	60                   	pusha  
    25c4:	66 8c d8             	mov    %ds,%ax
    25c7:	50                   	push   %eax
    25c8:	66 b8 10 00          	mov    $0x10,%ax
    25cc:	8e d8                	mov    %eax,%ds
    25ce:	8e c0                	mov    %eax,%es
    25d0:	8e e0                	mov    %eax,%fs
    25d2:	8e e8                	mov    %eax,%gs
    25d4:	e9 fc ff ff ff       	jmp    25d5 <interrupt_223+0x1a>
    25d9:	58                   	pop    %eax
    25da:	8e d8                	mov    %eax,%ds
    25dc:	8e c0                	mov    %eax,%es
    25de:	8e e0                	mov    %eax,%fs
    25e0:	8e e8                	mov    %eax,%gs
    25e2:	61                   	popa   
    25e3:	83 c4 08             	add    $0x8,%esp
    25e6:	fb                   	sti    
    25e7:	cf                   	iret   

000025e8 <interrupt_224>:
    25e8:	fa                   	cli    
    25e9:	6a 00                	push   $0x0
    25eb:	68 e0 00 00 00       	push   $0xe0
    25f0:	60                   	pusha  
    25f1:	66 8c d8             	mov    %ds,%ax
    25f4:	50                   	push   %eax
    25f5:	66 b8 10 00          	mov    $0x10,%ax
    25f9:	8e d8                	mov    %eax,%ds
    25fb:	8e c0                	mov    %eax,%es
    25fd:	8e e0                	mov    %eax,%fs
    25ff:	8e e8                	mov    %eax,%gs
    2601:	e9 fc ff ff ff       	jmp    2602 <interrupt_224+0x1a>
    2606:	58                   	pop    %eax
    2607:	8e d8                	mov    %eax,%ds
    2609:	8e c0                	mov    %eax,%es
    260b:	8e e0                	mov    %eax,%fs
    260d:	8e e8                	mov    %eax,%gs
    260f:	61                   	popa   
    2610:	83 c4 08             	add    $0x8,%esp
    2613:	fb                   	sti    
    2614:	cf                   	iret   

00002615 <interrupt_225>:
    2615:	fa                   	cli    
    2616:	6a 00                	push   $0x0
    2618:	68 e1 00 00 00       	push   $0xe1
    261d:	60                   	pusha  
    261e:	66 8c d8             	mov    %ds,%ax
    2621:	50                   	push   %eax
    2622:	66 b8 10 00          	mov    $0x10,%ax
    2626:	8e d8                	mov    %eax,%ds
    2628:	8e c0                	mov    %eax,%es
    262a:	8e e0                	mov    %eax,%fs
    262c:	8e e8                	mov    %eax,%gs
    262e:	e9 fc ff ff ff       	jmp    262f <interrupt_225+0x1a>
    2633:	58                   	pop    %eax
    2634:	8e d8                	mov    %eax,%ds
    2636:	8e c0                	mov    %eax,%es
    2638:	8e e0                	mov    %eax,%fs
    263a:	8e e8                	mov    %eax,%gs
    263c:	61                   	popa   
    263d:	83 c4 08             	add    $0x8,%esp
    2640:	fb                   	sti    
    2641:	cf                   	iret   

00002642 <interrupt_226>:
    2642:	fa                   	cli    
    2643:	6a 00                	push   $0x0
    2645:	68 e2 00 00 00       	push   $0xe2
    264a:	60                   	pusha  
    264b:	66 8c d8             	mov    %ds,%ax
    264e:	50                   	push   %eax
    264f:	66 b8 10 00          	mov    $0x10,%ax
    2653:	8e d8                	mov    %eax,%ds
    2655:	8e c0                	mov    %eax,%es
    2657:	8e e0                	mov    %eax,%fs
    2659:	8e e8                	mov    %eax,%gs
    265b:	e9 fc ff ff ff       	jmp    265c <interrupt_226+0x1a>
    2660:	58                   	pop    %eax
    2661:	8e d8                	mov    %eax,%ds
    2663:	8e c0                	mov    %eax,%es
    2665:	8e e0                	mov    %eax,%fs
    2667:	8e e8                	mov    %eax,%gs
    2669:	61                   	popa   
    266a:	83 c4 08             	add    $0x8,%esp
    266d:	fb                   	sti    
    266e:	cf                   	iret   

0000266f <interrupt_227>:
    266f:	fa                   	cli    
    2670:	6a 00                	push   $0x0
    2672:	68 e3 00 00 00       	push   $0xe3
    2677:	60                   	pusha  
    2678:	66 8c d8             	mov    %ds,%ax
    267b:	50                   	push   %eax
    267c:	66 b8 10 00          	mov    $0x10,%ax
    2680:	8e d8                	mov    %eax,%ds
    2682:	8e c0                	mov    %eax,%es
    2684:	8e e0                	mov    %eax,%fs
    2686:	8e e8                	mov    %eax,%gs
    2688:	e9 fc ff ff ff       	jmp    2689 <interrupt_227+0x1a>
    268d:	58                   	pop    %eax
    268e:	8e d8                	mov    %eax,%ds
    2690:	8e c0                	mov    %eax,%es
    2692:	8e e0                	mov    %eax,%fs
    2694:	8e e8                	mov    %eax,%gs
    2696:	61                   	popa   
    2697:	83 c4 08             	add    $0x8,%esp
    269a:	fb                   	sti    
    269b:	cf                   	iret   

0000269c <interrupt_228>:
    269c:	fa                   	cli    
    269d:	6a 00                	push   $0x0
    269f:	68 e4 00 00 00       	push   $0xe4
    26a4:	60                   	pusha  
    26a5:	66 8c d8             	mov    %ds,%ax
    26a8:	50                   	push   %eax
    26a9:	66 b8 10 00          	mov    $0x10,%ax
    26ad:	8e d8                	mov    %eax,%ds
    26af:	8e c0                	mov    %eax,%es
    26b1:	8e e0                	mov    %eax,%fs
    26b3:	8e e8                	mov    %eax,%gs
    26b5:	e9 fc ff ff ff       	jmp    26b6 <interrupt_228+0x1a>
    26ba:	58                   	pop    %eax
    26bb:	8e d8                	mov    %eax,%ds
    26bd:	8e c0                	mov    %eax,%es
    26bf:	8e e0                	mov    %eax,%fs
    26c1:	8e e8                	mov    %eax,%gs
    26c3:	61                   	popa   
    26c4:	83 c4 08             	add    $0x8,%esp
    26c7:	fb                   	sti    
    26c8:	cf                   	iret   

000026c9 <interrupt_229>:
    26c9:	fa                   	cli    
    26ca:	6a 00                	push   $0x0
    26cc:	68 e5 00 00 00       	push   $0xe5
    26d1:	60                   	pusha  
    26d2:	66 8c d8             	mov    %ds,%ax
    26d5:	50                   	push   %eax
    26d6:	66 b8 10 00          	mov    $0x10,%ax
    26da:	8e d8                	mov    %eax,%ds
    26dc:	8e c0                	mov    %eax,%es
    26de:	8e e0                	mov    %eax,%fs
    26e0:	8e e8                	mov    %eax,%gs
    26e2:	e9 fc ff ff ff       	jmp    26e3 <interrupt_229+0x1a>
    26e7:	58                   	pop    %eax
    26e8:	8e d8                	mov    %eax,%ds
    26ea:	8e c0                	mov    %eax,%es
    26ec:	8e e0                	mov    %eax,%fs
    26ee:	8e e8                	mov    %eax,%gs
    26f0:	61                   	popa   
    26f1:	83 c4 08             	add    $0x8,%esp
    26f4:	fb                   	sti    
    26f5:	cf                   	iret   

000026f6 <interrupt_230>:
    26f6:	fa                   	cli    
    26f7:	6a 00                	push   $0x0
    26f9:	68 e6 00 00 00       	push   $0xe6
    26fe:	60                   	pusha  
    26ff:	66 8c d8             	mov    %ds,%ax
    2702:	50                   	push   %eax
    2703:	66 b8 10 00          	mov    $0x10,%ax
    2707:	8e d8                	mov    %eax,%ds
    2709:	8e c0                	mov    %eax,%es
    270b:	8e e0                	mov    %eax,%fs
    270d:	8e e8                	mov    %eax,%gs
    270f:	e9 fc ff ff ff       	jmp    2710 <interrupt_230+0x1a>
    2714:	58                   	pop    %eax
    2715:	8e d8                	mov    %eax,%ds
    2717:	8e c0                	mov    %eax,%es
    2719:	8e e0                	mov    %eax,%fs
    271b:	8e e8                	mov    %eax,%gs
    271d:	61                   	popa   
    271e:	83 c4 08             	add    $0x8,%esp
    2721:	fb                   	sti    
    2722:	cf                   	iret   

00002723 <interrupt_231>:
    2723:	fa                   	cli    
    2724:	6a 00                	push   $0x0
    2726:	68 e7 00 00 00       	push   $0xe7
    272b:	60                   	pusha  
    272c:	66 8c d8             	mov    %ds,%ax
    272f:	50                   	push   %eax
    2730:	66 b8 10 00          	mov    $0x10,%ax
    2734:	8e d8                	mov    %eax,%ds
    2736:	8e c0                	mov    %eax,%es
    2738:	8e e0                	mov    %eax,%fs
    273a:	8e e8                	mov    %eax,%gs
    273c:	e9 fc ff ff ff       	jmp    273d <interrupt_231+0x1a>
    2741:	58                   	pop    %eax
    2742:	8e d8                	mov    %eax,%ds
    2744:	8e c0                	mov    %eax,%es
    2746:	8e e0                	mov    %eax,%fs
    2748:	8e e8                	mov    %eax,%gs
    274a:	61                   	popa   
    274b:	83 c4 08             	add    $0x8,%esp
    274e:	fb                   	sti    
    274f:	cf                   	iret   

00002750 <interrupt_232>:
    2750:	fa                   	cli    
    2751:	6a 00                	push   $0x0
    2753:	68 e8 00 00 00       	push   $0xe8
    2758:	60                   	pusha  
    2759:	66 8c d8             	mov    %ds,%ax
    275c:	50                   	push   %eax
    275d:	66 b8 10 00          	mov    $0x10,%ax
    2761:	8e d8                	mov    %eax,%ds
    2763:	8e c0                	mov    %eax,%es
    2765:	8e e0                	mov    %eax,%fs
    2767:	8e e8                	mov    %eax,%gs
    2769:	e9 fc ff ff ff       	jmp    276a <interrupt_232+0x1a>
    276e:	58                   	pop    %eax
    276f:	8e d8                	mov    %eax,%ds
    2771:	8e c0                	mov    %eax,%es
    2773:	8e e0                	mov    %eax,%fs
    2775:	8e e8                	mov    %eax,%gs
    2777:	61                   	popa   
    2778:	83 c4 08             	add    $0x8,%esp
    277b:	fb                   	sti    
    277c:	cf                   	iret   

0000277d <interrupt_233>:
    277d:	fa                   	cli    
    277e:	6a 00                	push   $0x0
    2780:	68 e9 00 00 00       	push   $0xe9
    2785:	60                   	pusha  
    2786:	66 8c d8             	mov    %ds,%ax
    2789:	50                   	push   %eax
    278a:	66 b8 10 00          	mov    $0x10,%ax
    278e:	8e d8                	mov    %eax,%ds
    2790:	8e c0                	mov    %eax,%es
    2792:	8e e0                	mov    %eax,%fs
    2794:	8e e8                	mov    %eax,%gs
    2796:	e9 fc ff ff ff       	jmp    2797 <interrupt_233+0x1a>
    279b:	58                   	pop    %eax
    279c:	8e d8                	mov    %eax,%ds
    279e:	8e c0                	mov    %eax,%es
    27a0:	8e e0                	mov    %eax,%fs
    27a2:	8e e8                	mov    %eax,%gs
    27a4:	61                   	popa   
    27a5:	83 c4 08             	add    $0x8,%esp
    27a8:	fb                   	sti    
    27a9:	cf                   	iret   

000027aa <interrupt_234>:
    27aa:	fa                   	cli    
    27ab:	6a 00                	push   $0x0
    27ad:	68 ea 00 00 00       	push   $0xea
    27b2:	60                   	pusha  
    27b3:	66 8c d8             	mov    %ds,%ax
    27b6:	50                   	push   %eax
    27b7:	66 b8 10 00          	mov    $0x10,%ax
    27bb:	8e d8                	mov    %eax,%ds
    27bd:	8e c0                	mov    %eax,%es
    27bf:	8e e0                	mov    %eax,%fs
    27c1:	8e e8                	mov    %eax,%gs
    27c3:	e9 fc ff ff ff       	jmp    27c4 <interrupt_234+0x1a>
    27c8:	58                   	pop    %eax
    27c9:	8e d8                	mov    %eax,%ds
    27cb:	8e c0                	mov    %eax,%es
    27cd:	8e e0                	mov    %eax,%fs
    27cf:	8e e8                	mov    %eax,%gs
    27d1:	61                   	popa   
    27d2:	83 c4 08             	add    $0x8,%esp
    27d5:	fb                   	sti    
    27d6:	cf                   	iret   

000027d7 <interrupt_235>:
    27d7:	fa                   	cli    
    27d8:	6a 00                	push   $0x0
    27da:	68 eb 00 00 00       	push   $0xeb
    27df:	60                   	pusha  
    27e0:	66 8c d8             	mov    %ds,%ax
    27e3:	50                   	push   %eax
    27e4:	66 b8 10 00          	mov    $0x10,%ax
    27e8:	8e d8                	mov    %eax,%ds
    27ea:	8e c0                	mov    %eax,%es
    27ec:	8e e0                	mov    %eax,%fs
    27ee:	8e e8                	mov    %eax,%gs
    27f0:	e9 fc ff ff ff       	jmp    27f1 <interrupt_235+0x1a>
    27f5:	58                   	pop    %eax
    27f6:	8e d8                	mov    %eax,%ds
    27f8:	8e c0                	mov    %eax,%es
    27fa:	8e e0                	mov    %eax,%fs
    27fc:	8e e8                	mov    %eax,%gs
    27fe:	61                   	popa   
    27ff:	83 c4 08             	add    $0x8,%esp
    2802:	fb                   	sti    
    2803:	cf                   	iret   

00002804 <interrupt_236>:
    2804:	fa                   	cli    
    2805:	6a 00                	push   $0x0
    2807:	68 ec 00 00 00       	push   $0xec
    280c:	60                   	pusha  
    280d:	66 8c d8             	mov    %ds,%ax
    2810:	50                   	push   %eax
    2811:	66 b8 10 00          	mov    $0x10,%ax
    2815:	8e d8                	mov    %eax,%ds
    2817:	8e c0                	mov    %eax,%es
    2819:	8e e0                	mov    %eax,%fs
    281b:	8e e8                	mov    %eax,%gs
    281d:	e9 fc ff ff ff       	jmp    281e <interrupt_236+0x1a>
    2822:	58                   	pop    %eax
    2823:	8e d8                	mov    %eax,%ds
    2825:	8e c0                	mov    %eax,%es
    2827:	8e e0                	mov    %eax,%fs
    2829:	8e e8                	mov    %eax,%gs
    282b:	61                   	popa   
    282c:	83 c4 08             	add    $0x8,%esp
    282f:	fb                   	sti    
    2830:	cf                   	iret   

00002831 <interrupt_237>:
    2831:	fa                   	cli    
    2832:	6a 00                	push   $0x0
    2834:	68 ed 00 00 00       	push   $0xed
    2839:	60                   	pusha  
    283a:	66 8c d8             	mov    %ds,%ax
    283d:	50                   	push   %eax
    283e:	66 b8 10 00          	mov    $0x10,%ax
    2842:	8e d8                	mov    %eax,%ds
    2844:	8e c0                	mov    %eax,%es
    2846:	8e e0                	mov    %eax,%fs
    2848:	8e e8                	mov    %eax,%gs
    284a:	e9 fc ff ff ff       	jmp    284b <interrupt_237+0x1a>
    284f:	58                   	pop    %eax
    2850:	8e d8                	mov    %eax,%ds
    2852:	8e c0                	mov    %eax,%es
    2854:	8e e0                	mov    %eax,%fs
    2856:	8e e8                	mov    %eax,%gs
    2858:	61                   	popa   
    2859:	83 c4 08             	add    $0x8,%esp
    285c:	fb                   	sti    
    285d:	cf                   	iret   

0000285e <interrupt_238>:
    285e:	fa                   	cli    
    285f:	6a 00                	push   $0x0
    2861:	68 ee 00 00 00       	push   $0xee
    2866:	60                   	pusha  
    2867:	66 8c d8             	mov    %ds,%ax
    286a:	50                   	push   %eax
    286b:	66 b8 10 00          	mov    $0x10,%ax
    286f:	8e d8                	mov    %eax,%ds
    2871:	8e c0                	mov    %eax,%es
    2873:	8e e0                	mov    %eax,%fs
    2875:	8e e8                	mov    %eax,%gs
    2877:	e9 fc ff ff ff       	jmp    2878 <interrupt_238+0x1a>
    287c:	58                   	pop    %eax
    287d:	8e d8                	mov    %eax,%ds
    287f:	8e c0                	mov    %eax,%es
    2881:	8e e0                	mov    %eax,%fs
    2883:	8e e8                	mov    %eax,%gs
    2885:	61                   	popa   
    2886:	83 c4 08             	add    $0x8,%esp
    2889:	fb                   	sti    
    288a:	cf                   	iret   

0000288b <interrupt_239>:
    288b:	fa                   	cli    
    288c:	6a 00                	push   $0x0
    288e:	68 ef 00 00 00       	push   $0xef
    2893:	60                   	pusha  
    2894:	66 8c d8             	mov    %ds,%ax
    2897:	50                   	push   %eax
    2898:	66 b8 10 00          	mov    $0x10,%ax
    289c:	8e d8                	mov    %eax,%ds
    289e:	8e c0                	mov    %eax,%es
    28a0:	8e e0                	mov    %eax,%fs
    28a2:	8e e8                	mov    %eax,%gs
    28a4:	e9 fc ff ff ff       	jmp    28a5 <interrupt_239+0x1a>
    28a9:	58                   	pop    %eax
    28aa:	8e d8                	mov    %eax,%ds
    28ac:	8e c0                	mov    %eax,%es
    28ae:	8e e0                	mov    %eax,%fs
    28b0:	8e e8                	mov    %eax,%gs
    28b2:	61                   	popa   
    28b3:	83 c4 08             	add    $0x8,%esp
    28b6:	fb                   	sti    
    28b7:	cf                   	iret   

000028b8 <interrupt_240>:
    28b8:	fa                   	cli    
    28b9:	6a 00                	push   $0x0
    28bb:	68 f0 00 00 00       	push   $0xf0
    28c0:	60                   	pusha  
    28c1:	66 8c d8             	mov    %ds,%ax
    28c4:	50                   	push   %eax
    28c5:	66 b8 10 00          	mov    $0x10,%ax
    28c9:	8e d8                	mov    %eax,%ds
    28cb:	8e c0                	mov    %eax,%es
    28cd:	8e e0                	mov    %eax,%fs
    28cf:	8e e8                	mov    %eax,%gs
    28d1:	e9 fc ff ff ff       	jmp    28d2 <interrupt_240+0x1a>
    28d6:	58                   	pop    %eax
    28d7:	8e d8                	mov    %eax,%ds
    28d9:	8e c0                	mov    %eax,%es
    28db:	8e e0                	mov    %eax,%fs
    28dd:	8e e8                	mov    %eax,%gs
    28df:	61                   	popa   
    28e0:	83 c4 08             	add    $0x8,%esp
    28e3:	fb                   	sti    
    28e4:	cf                   	iret   

000028e5 <interrupt_241>:
    28e5:	fa                   	cli    
    28e6:	6a 00                	push   $0x0
    28e8:	68 f1 00 00 00       	push   $0xf1
    28ed:	60                   	pusha  
    28ee:	66 8c d8             	mov    %ds,%ax
    28f1:	50                   	push   %eax
    28f2:	66 b8 10 00          	mov    $0x10,%ax
    28f6:	8e d8                	mov    %eax,%ds
    28f8:	8e c0                	mov    %eax,%es
    28fa:	8e e0                	mov    %eax,%fs
    28fc:	8e e8                	mov    %eax,%gs
    28fe:	e9 fc ff ff ff       	jmp    28ff <interrupt_241+0x1a>
    2903:	58                   	pop    %eax
    2904:	8e d8                	mov    %eax,%ds
    2906:	8e c0                	mov    %eax,%es
    2908:	8e e0                	mov    %eax,%fs
    290a:	8e e8                	mov    %eax,%gs
    290c:	61                   	popa   
    290d:	83 c4 08             	add    $0x8,%esp
    2910:	fb                   	sti    
    2911:	cf                   	iret   

00002912 <interrupt_242>:
    2912:	fa                   	cli    
    2913:	6a 00                	push   $0x0
    2915:	68 f2 00 00 00       	push   $0xf2
    291a:	60                   	pusha  
    291b:	66 8c d8             	mov    %ds,%ax
    291e:	50                   	push   %eax
    291f:	66 b8 10 00          	mov    $0x10,%ax
    2923:	8e d8                	mov    %eax,%ds
    2925:	8e c0                	mov    %eax,%es
    2927:	8e e0                	mov    %eax,%fs
    2929:	8e e8                	mov    %eax,%gs
    292b:	e9 fc ff ff ff       	jmp    292c <interrupt_242+0x1a>
    2930:	58                   	pop    %eax
    2931:	8e d8                	mov    %eax,%ds
    2933:	8e c0                	mov    %eax,%es
    2935:	8e e0                	mov    %eax,%fs
    2937:	8e e8                	mov    %eax,%gs
    2939:	61                   	popa   
    293a:	83 c4 08             	add    $0x8,%esp
    293d:	fb                   	sti    
    293e:	cf                   	iret   

0000293f <interrupt_243>:
    293f:	fa                   	cli    
    2940:	6a 00                	push   $0x0
    2942:	68 f3 00 00 00       	push   $0xf3
    2947:	60                   	pusha  
    2948:	66 8c d8             	mov    %ds,%ax
    294b:	50                   	push   %eax
    294c:	66 b8 10 00          	mov    $0x10,%ax
    2950:	8e d8                	mov    %eax,%ds
    2952:	8e c0                	mov    %eax,%es
    2954:	8e e0                	mov    %eax,%fs
    2956:	8e e8                	mov    %eax,%gs
    2958:	e9 fc ff ff ff       	jmp    2959 <interrupt_243+0x1a>
    295d:	58                   	pop    %eax
    295e:	8e d8                	mov    %eax,%ds
    2960:	8e c0                	mov    %eax,%es
    2962:	8e e0                	mov    %eax,%fs
    2964:	8e e8                	mov    %eax,%gs
    2966:	61                   	popa   
    2967:	83 c4 08             	add    $0x8,%esp
    296a:	fb                   	sti    
    296b:	cf                   	iret   

0000296c <interrupt_244>:
    296c:	fa                   	cli    
    296d:	6a 00                	push   $0x0
    296f:	68 f4 00 00 00       	push   $0xf4
    2974:	60                   	pusha  
    2975:	66 8c d8             	mov    %ds,%ax
    2978:	50                   	push   %eax
    2979:	66 b8 10 00          	mov    $0x10,%ax
    297d:	8e d8                	mov    %eax,%ds
    297f:	8e c0                	mov    %eax,%es
    2981:	8e e0                	mov    %eax,%fs
    2983:	8e e8                	mov    %eax,%gs
    2985:	e9 fc ff ff ff       	jmp    2986 <interrupt_244+0x1a>
    298a:	58                   	pop    %eax
    298b:	8e d8                	mov    %eax,%ds
    298d:	8e c0                	mov    %eax,%es
    298f:	8e e0                	mov    %eax,%fs
    2991:	8e e8                	mov    %eax,%gs
    2993:	61                   	popa   
    2994:	83 c4 08             	add    $0x8,%esp
    2997:	fb                   	sti    
    2998:	cf                   	iret   

00002999 <interrupt_245>:
    2999:	fa                   	cli    
    299a:	6a 00                	push   $0x0
    299c:	68 f5 00 00 00       	push   $0xf5
    29a1:	60                   	pusha  
    29a2:	66 8c d8             	mov    %ds,%ax
    29a5:	50                   	push   %eax
    29a6:	66 b8 10 00          	mov    $0x10,%ax
    29aa:	8e d8                	mov    %eax,%ds
    29ac:	8e c0                	mov    %eax,%es
    29ae:	8e e0                	mov    %eax,%fs
    29b0:	8e e8                	mov    %eax,%gs
    29b2:	e9 fc ff ff ff       	jmp    29b3 <interrupt_245+0x1a>
    29b7:	58                   	pop    %eax
    29b8:	8e d8                	mov    %eax,%ds
    29ba:	8e c0                	mov    %eax,%es
    29bc:	8e e0                	mov    %eax,%fs
    29be:	8e e8                	mov    %eax,%gs
    29c0:	61                   	popa   
    29c1:	83 c4 08             	add    $0x8,%esp
    29c4:	fb                   	sti    
    29c5:	cf                   	iret   

000029c6 <interrupt_246>:
    29c6:	fa                   	cli    
    29c7:	6a 00                	push   $0x0
    29c9:	68 f6 00 00 00       	push   $0xf6
    29ce:	60                   	pusha  
    29cf:	66 8c d8             	mov    %ds,%ax
    29d2:	50                   	push   %eax
    29d3:	66 b8 10 00          	mov    $0x10,%ax
    29d7:	8e d8                	mov    %eax,%ds
    29d9:	8e c0                	mov    %eax,%es
    29db:	8e e0                	mov    %eax,%fs
    29dd:	8e e8                	mov    %eax,%gs
    29df:	e9 fc ff ff ff       	jmp    29e0 <interrupt_246+0x1a>
    29e4:	58                   	pop    %eax
    29e5:	8e d8                	mov    %eax,%ds
    29e7:	8e c0                	mov    %eax,%es
    29e9:	8e e0                	mov    %eax,%fs
    29eb:	8e e8                	mov    %eax,%gs
    29ed:	61                   	popa   
    29ee:	83 c4 08             	add    $0x8,%esp
    29f1:	fb                   	sti    
    29f2:	cf                   	iret   

000029f3 <interrupt_247>:
    29f3:	fa                   	cli    
    29f4:	6a 00                	push   $0x0
    29f6:	68 f7 00 00 00       	push   $0xf7
    29fb:	60                   	pusha  
    29fc:	66 8c d8             	mov    %ds,%ax
    29ff:	50                   	push   %eax
    2a00:	66 b8 10 00          	mov    $0x10,%ax
    2a04:	8e d8                	mov    %eax,%ds
    2a06:	8e c0                	mov    %eax,%es
    2a08:	8e e0                	mov    %eax,%fs
    2a0a:	8e e8                	mov    %eax,%gs
    2a0c:	e9 fc ff ff ff       	jmp    2a0d <interrupt_247+0x1a>
    2a11:	58                   	pop    %eax
    2a12:	8e d8                	mov    %eax,%ds
    2a14:	8e c0                	mov    %eax,%es
    2a16:	8e e0                	mov    %eax,%fs
    2a18:	8e e8                	mov    %eax,%gs
    2a1a:	61                   	popa   
    2a1b:	83 c4 08             	add    $0x8,%esp
    2a1e:	fb                   	sti    
    2a1f:	cf                   	iret   

00002a20 <interrupt_248>:
    2a20:	fa                   	cli    
    2a21:	6a 00                	push   $0x0
    2a23:	68 f8 00 00 00       	push   $0xf8
    2a28:	60                   	pusha  
    2a29:	66 8c d8             	mov    %ds,%ax
    2a2c:	50                   	push   %eax
    2a2d:	66 b8 10 00          	mov    $0x10,%ax
    2a31:	8e d8                	mov    %eax,%ds
    2a33:	8e c0                	mov    %eax,%es
    2a35:	8e e0                	mov    %eax,%fs
    2a37:	8e e8                	mov    %eax,%gs
    2a39:	e9 fc ff ff ff       	jmp    2a3a <interrupt_248+0x1a>
    2a3e:	58                   	pop    %eax
    2a3f:	8e d8                	mov    %eax,%ds
    2a41:	8e c0                	mov    %eax,%es
    2a43:	8e e0                	mov    %eax,%fs
    2a45:	8e e8                	mov    %eax,%gs
    2a47:	61                   	popa   
    2a48:	83 c4 08             	add    $0x8,%esp
    2a4b:	fb                   	sti    
    2a4c:	cf                   	iret   

00002a4d <interrupt_249>:
    2a4d:	fa                   	cli    
    2a4e:	6a 00                	push   $0x0
    2a50:	68 f9 00 00 00       	push   $0xf9
    2a55:	60                   	pusha  
    2a56:	66 8c d8             	mov    %ds,%ax
    2a59:	50                   	push   %eax
    2a5a:	66 b8 10 00          	mov    $0x10,%ax
    2a5e:	8e d8                	mov    %eax,%ds
    2a60:	8e c0                	mov    %eax,%es
    2a62:	8e e0                	mov    %eax,%fs
    2a64:	8e e8                	mov    %eax,%gs
    2a66:	e9 fc ff ff ff       	jmp    2a67 <interrupt_249+0x1a>
    2a6b:	58                   	pop    %eax
    2a6c:	8e d8                	mov    %eax,%ds
    2a6e:	8e c0                	mov    %eax,%es
    2a70:	8e e0                	mov    %eax,%fs
    2a72:	8e e8                	mov    %eax,%gs
    2a74:	61                   	popa   
    2a75:	83 c4 08             	add    $0x8,%esp
    2a78:	fb                   	sti    
    2a79:	cf                   	iret   

00002a7a <interrupt_250>:
    2a7a:	fa                   	cli    
    2a7b:	6a 00                	push   $0x0
    2a7d:	68 fa 00 00 00       	push   $0xfa
    2a82:	60                   	pusha  
    2a83:	66 8c d8             	mov    %ds,%ax
    2a86:	50                   	push   %eax
    2a87:	66 b8 10 00          	mov    $0x10,%ax
    2a8b:	8e d8                	mov    %eax,%ds
    2a8d:	8e c0                	mov    %eax,%es
    2a8f:	8e e0                	mov    %eax,%fs
    2a91:	8e e8                	mov    %eax,%gs
    2a93:	e9 fc ff ff ff       	jmp    2a94 <interrupt_250+0x1a>
    2a98:	58                   	pop    %eax
    2a99:	8e d8                	mov    %eax,%ds
    2a9b:	8e c0                	mov    %eax,%es
    2a9d:	8e e0                	mov    %eax,%fs
    2a9f:	8e e8                	mov    %eax,%gs
    2aa1:	61                   	popa   
    2aa2:	83 c4 08             	add    $0x8,%esp
    2aa5:	fb                   	sti    
    2aa6:	cf                   	iret   

00002aa7 <interrupt_251>:
    2aa7:	fa                   	cli    
    2aa8:	6a 00                	push   $0x0
    2aaa:	68 fb 00 00 00       	push   $0xfb
    2aaf:	60                   	pusha  
    2ab0:	66 8c d8             	mov    %ds,%ax
    2ab3:	50                   	push   %eax
    2ab4:	66 b8 10 00          	mov    $0x10,%ax
    2ab8:	8e d8                	mov    %eax,%ds
    2aba:	8e c0                	mov    %eax,%es
    2abc:	8e e0                	mov    %eax,%fs
    2abe:	8e e8                	mov    %eax,%gs
    2ac0:	e9 fc ff ff ff       	jmp    2ac1 <interrupt_251+0x1a>
    2ac5:	58                   	pop    %eax
    2ac6:	8e d8                	mov    %eax,%ds
    2ac8:	8e c0                	mov    %eax,%es
    2aca:	8e e0                	mov    %eax,%fs
    2acc:	8e e8                	mov    %eax,%gs
    2ace:	61                   	popa   
    2acf:	83 c4 08             	add    $0x8,%esp
    2ad2:	fb                   	sti    
    2ad3:	cf                   	iret   

00002ad4 <interrupt_252>:
    2ad4:	fa                   	cli    
    2ad5:	6a 00                	push   $0x0
    2ad7:	68 fc 00 00 00       	push   $0xfc
    2adc:	60                   	pusha  
    2add:	66 8c d8             	mov    %ds,%ax
    2ae0:	50                   	push   %eax
    2ae1:	66 b8 10 00          	mov    $0x10,%ax
    2ae5:	8e d8                	mov    %eax,%ds
    2ae7:	8e c0                	mov    %eax,%es
    2ae9:	8e e0                	mov    %eax,%fs
    2aeb:	8e e8                	mov    %eax,%gs
    2aed:	e9 fc ff ff ff       	jmp    2aee <interrupt_252+0x1a>
    2af2:	58                   	pop    %eax
    2af3:	8e d8                	mov    %eax,%ds
    2af5:	8e c0                	mov    %eax,%es
    2af7:	8e e0                	mov    %eax,%fs
    2af9:	8e e8                	mov    %eax,%gs
    2afb:	61                   	popa   
    2afc:	83 c4 08             	add    $0x8,%esp
    2aff:	fb                   	sti    
    2b00:	cf                   	iret   

00002b01 <interrupt_253>:
    2b01:	fa                   	cli    
    2b02:	6a 00                	push   $0x0
    2b04:	68 fd 00 00 00       	push   $0xfd
    2b09:	60                   	pusha  
    2b0a:	66 8c d8             	mov    %ds,%ax
    2b0d:	50                   	push   %eax
    2b0e:	66 b8 10 00          	mov    $0x10,%ax
    2b12:	8e d8                	mov    %eax,%ds
    2b14:	8e c0                	mov    %eax,%es
    2b16:	8e e0                	mov    %eax,%fs
    2b18:	8e e8                	mov    %eax,%gs
    2b1a:	e9 fc ff ff ff       	jmp    2b1b <interrupt_253+0x1a>
    2b1f:	58                   	pop    %eax
    2b20:	8e d8                	mov    %eax,%ds
    2b22:	8e c0                	mov    %eax,%es
    2b24:	8e e0                	mov    %eax,%fs
    2b26:	8e e8                	mov    %eax,%gs
    2b28:	61                   	popa   
    2b29:	83 c4 08             	add    $0x8,%esp
    2b2c:	fb                   	sti    
    2b2d:	cf                   	iret   

00002b2e <interrupt_254>:
    2b2e:	fa                   	cli    
    2b2f:	6a 00                	push   $0x0
    2b31:	68 fe 00 00 00       	push   $0xfe
    2b36:	60                   	pusha  
    2b37:	66 8c d8             	mov    %ds,%ax
    2b3a:	50                   	push   %eax
    2b3b:	66 b8 10 00          	mov    $0x10,%ax
    2b3f:	8e d8                	mov    %eax,%ds
    2b41:	8e c0                	mov    %eax,%es
    2b43:	8e e0                	mov    %eax,%fs
    2b45:	8e e8                	mov    %eax,%gs
    2b47:	e9 fc ff ff ff       	jmp    2b48 <interrupt_254+0x1a>
    2b4c:	58                   	pop    %eax
    2b4d:	8e d8                	mov    %eax,%ds
    2b4f:	8e c0                	mov    %eax,%es
    2b51:	8e e0                	mov    %eax,%fs
    2b53:	8e e8                	mov    %eax,%gs
    2b55:	61                   	popa   
    2b56:	83 c4 08             	add    $0x8,%esp
    2b59:	fb                   	sti    
    2b5a:	cf                   	iret   

00002b5b <interrupt_255>:
    2b5b:	fa                   	cli    
    2b5c:	6a 00                	push   $0x0
    2b5e:	68 ff 00 00 00       	push   $0xff
    2b63:	60                   	pusha  
    2b64:	66 8c d8             	mov    %ds,%ax
    2b67:	50                   	push   %eax
    2b68:	66 b8 10 00          	mov    $0x10,%ax
    2b6c:	8e d8                	mov    %eax,%ds
    2b6e:	8e c0                	mov    %eax,%es
    2b70:	8e e0                	mov    %eax,%fs
    2b72:	8e e8                	mov    %eax,%gs
    2b74:	e9 fc ff ff ff       	jmp    2b75 <interrupt_255+0x1a>
    2b79:	58                   	pop    %eax
    2b7a:	8e d8                	mov    %eax,%ds
    2b7c:	8e c0                	mov    %eax,%es
    2b7e:	8e e0                	mov    %eax,%fs
    2b80:	8e e8                	mov    %eax,%gs
    2b82:	61                   	popa   
    2b83:	83 c4 08             	add    $0x8,%esp
    2b86:	fb                   	sti    
    2b87:	cf                   	iret   
